(lp0
(lp1
S'Line'
p2
a(F504.0
F-65.0
tp3
a(F799.0
F-65.0
tp4
aa(lp5
g2
a(F504.0
F-66.0
tp6
a(F799.0
F-66.0
tp7
aa(lp8
S'Circle'
p9
a(lp10
F642.0
aF-1016.9089221883175
aa(lp11
aF15.0
aa(lp12
g9
a(lp13
F642.0
aF-1017.1268305686139
aa(lp14
aF15.0
aa(lp15
g9
a(lp16
F642.0
aF3194.7620573590957
aa(lp17
aF15.0
aa(lp18
g9
a(lp19
F642.0
aF3164.879731670133
aa(lp20
aF15.0
aa(lp21
g9
a(lp22
F642.0
aF3135.0062360641182
aa(lp23
aF15.0
aa(lp24
g9
a(lp25
F642.0
aF3105.1415634720606
aa(lp26
aF15.0
aa(lp27
g9
a(lp28
F642.0
aF3075.2857050612647
aa(lp29
aF15.0
aa(lp30
g9
a(lp31
F642.0
aF3045.4386502374541
aa(lp32
aF15.0
aa(lp33
g9
a(lp34
F642.0
aF3015.6003866472511
aa(lp35
aF15.0
aa(lp36
g9
a(lp37
F642.0
aF2985.7709001809994
aa(lp38
aF15.0
aa(lp39
g9
a(lp40
F642.0
aF2955.9501749759452
aa(lp41
aF15.0
aa(lp42
g9
a(lp43
F642.0
aF-1016.7189341726659
aa(lp44
aF15.0
aa(lp45
g9
a(lp46
F642.0
aF2926.1381934197684
aa(lp47
aF15.0
aa(lp48
g9
a(lp49
F642.0
aF2896.334936154457
aa(lp50
aF15.0
aa(lp51
g9
a(lp52
F642.0
aF2866.5403820805368
aa(lp53
aF15.0
aa(lp54
g9
a(lp55
F642.0
aF2836.7545083616419
aa(lp56
aF15.0
aa(lp57
g9
a(lp58
F642.0
aF2806.9772904294346
aa(lp59
aF15.0
aa(lp60
g9
a(lp61
F642.0
aF2777.2087019888695
aa(lp62
aF15.0
aa(lp63
g9
a(lp64
F642.0
aF2747.4487150237997
aa(lp65
aF15.0
aa(lp66
g9
a(lp67
F642.0
aF2717.697299802926
aa(lp68
aF15.0
aa(lp69
g9
a(lp70
F642.0
aF2687.9544248860861
aa(lp71
aF15.0
aa(lp72
g9
a(lp73
F642.0
aF-1016.7024411453026
aa(lp74
aF15.0
aa(lp75
g9
a(lp76
F642.0
aF-1019.1604252350215
aa(lp77
aF15.0
aa(lp78
g9
a(lp79
F642.0
aF2658.2200571308822
aa(lp80
aF15.0
aa(lp81
g9
a(lp82
F642.0
aF2628.4941616996452
aa(lp83
aF15.0
aa(lp84
g9
a(lp85
F642.0
aF2598.7767020667393
aa(lp86
aF15.0
aa(lp87
g9
a(lp88
F642.0
aF2569.0676400261923
aa(lp89
aF15.0
aa(lp90
g9
a(lp91
F642.0
aF2539.3669356996643
aa(lp92
aF15.0
aa(lp93
g9
a(lp94
F642.0
aF-1016.9071284118161
aa(lp95
aF15.0
aa(lp96
g9
a(lp97
F642.0
aF-1016.6886523531368
aa(lp98
aF15.0
aa(lp99
g9
a(lp100
F642.0
aF2509.674547544746
aa(lp101
aF15.0
aa(lp102
g9
a(lp103
F642.0
aF2479.9904323635837
aa(lp104
aF15.0
aa(lp105
g9
a(lp106
F642.0
aF2450.3145453118277
aa(lp107
aF15.0
aa(lp108
g9
a(lp109
F642.0
aF2420.646839907914
aa(lp110
aF15.0
aa(lp111
g9
a(lp112
F642.0
aF2390.9872680426574
aa(lp113
aF15.0
aa(lp114
g9
a(lp115
F642.0
aF-1018.5753106721266
aa(lp116
aF15.0
aa(lp117
g9
a(lp118
F642.0
aF-1020.3637872868671
aa(lp119
aF15.0
aa(lp120
g9
a(lp121
F642.0
aF-1019.713408560836
aa(lp122
aF15.0
aa(lp123
g9
a(lp124
F642.0
aF2361.3357799891733
aa(lp125
aF15.0
aa(lp126
g9
a(lp127
F642.0
aF2331.6923244131131
aa(lp128
aF15.0
aa(lp129
g9
a(lp130
F642.0
aF2302.0568483832176
aa(lp131
aF15.0
aa(lp132
g9
a(lp133
F642.0
aF2272.4292973821794
aa(lp134
aF15.0
aa(lp135
g9
a(lp136
F642.0
aF-1000.0467169358514
aa(lp137
aF15.0
aa(lp138
g9
a(lp139
F642.0
aF-1021.3232050574157
aa(lp140
aF15.0
aa(lp141
g9
a(lp142
F642.0
aF2242.8096153178226
aa(lp143
aF15.0
aa(lp144
g9
a(lp145
F642.0
aF2213.1977445345883
aa(lp146
aF15.0
aa(lp147
g9
a(lp148
F642.0
aF-1000.5823563393286
aa(lp149
aF15.0
aa(lp150
g9
a(lp151
F642.0
aF-1020.9614315213436
aa(lp152
aF15.0
aa(lp153
g9
a(lp154
F642.0
aF-1019.2483876118567
aa(lp155
aF15.0
aa(lp156
g9
a(lp157
F642.0
aF2183.5936258253273
aa(lp158
aF15.0
aa(lp159
g9
a(lp160
F642.0
aF2153.9971984433896
aa(lp161
aF15.0
aa(lp162
g9
a(lp163
F642.0
aF2124.4084001150322
aa(lp164
aF15.0
aa(lp165
g9
a(lp166
F642.0
aF-1019.6954321982851
aa(lp167
aF15.0
aa(lp168
g9
a(lp169
F642.0
aF-1000.1403486964759
aa(lp170
aF15.0
aa(lp171
g9
a(lp172
F642.0
aF-1021.4461639605609
aa(lp173
aF15.0
aa(lp174
g9
a(lp175
F642.0
aF2094.8271670521076
aa(lp176
aF15.0
aa(lp177
g9
a(lp178
F642.0
aF2065.253433965061
aa(lp179
aF15.0
aa(lp180
g9
a(lp181
F642.0
aF-1020.726925492329
aa(lp182
aF15.0
aa(lp183
g9
a(lp184
F642.0
aF-1004.3024614567511
aa(lp185
aF15.0
aa(lp186
g9
a(lp187
F642.0
aF-1007.0607585865796
aa(lp188
aF15.0
aa(lp189
g9
a(lp190
F642.0
aF-1021.1524640735682
aa(lp191
aF15.0
aa(lp192
g9
a(lp193
F642.0
aF2035.6871340762118
aa(lp194
aF15.0
aa(lp195
g9
a(lp196
F642.0
aF2006.1281991333376
aa(lp197
aF15.0
aa(lp198
g9
a(lp199
F642.0
aF1976.5765594235363
aa(lp200
aF15.0
aa(lp201
g9
a(lp202
F642.0
aF1947.032143787379
aa(lp203
aF15.0
aa(lp204
g9
a(lp205
F642.0
aF-1001.4732624969656
aa(lp206
aF15.0
aa(lp207
g9
a(lp208
F642.0
aF-1008.1719642677812
aa(lp209
aF15.0
aa(lp210
g9
a(lp211
F642.0
aF-1009.1051143565385
aa(lp212
aF15.0
aa(lp213
g9
a(lp214
F642.0
aF-1009.0724717826682
aa(lp215
aF15.0
aa(lp216
g9
a(lp217
F642.0
aF1917.4948796333454
aa(lp218
aF15.0
aa(lp219
g9
a(lp220
F642.0
aF1887.9646929525395
aa(lp221
aF15.0
aa(lp222
g9
a(lp223
F642.0
aF-1007.1793834971827
aa(lp224
aF15.0
aa(lp225
g9
a(lp226
F642.0
aF-1000.7094649581925
aa(lp227
aF15.0
aa(lp228
g9
a(lp229
F642.0
aF-1020.4642020481014
aa(lp230
aF15.0
aa(lp231
g9
a(lp232
F642.0
aF1858.4415083336826
aa(lp233
aF15.0
aa(lp234
g9
a(lp235
F642.0
aF1828.9252489783801
aa(lp236
aF15.0
aa(lp237
g9
a(lp238
F642.0
aF-1004.0898732448629
aa(lp239
aF15.0
aa(lp240
g9
a(lp241
F642.0
aF-1005.4775100965426
aa(lp242
aF15.0
aa(lp243
g9
a(lp244
F642.0
aF-1009.3064106786032
aa(lp245
aF15.0
aa(lp246
g9
a(lp247
F642.0
aF1799.4158367166615
aa(lp248
aF15.0
aa(lp249
g9
a(lp250
F642.0
aF-1006.3946257285858
aa(lp251
aF15.0
aa(lp252
g9
a(lp253
F642.0
aF-1006.810508529528
aa(lp254
aF15.0
aa(lp255
g9
a(lp256
F642.0
aF-1005.2421869615966
aa(lp257
aF15.0
aa(lp258
g9
a(lp259
F642.0
aF-1001.8447214424742
aa(lp260
aF15.0
aa(lp261
g9
a(lp262
F642.0
aF1769.9131920227887
aa(lp263
aF15.0
aa(lp264
g9
a(lp265
F642.0
aF1740.4172340313314
aa(lp266
aF15.0
aa(lp267
g9
a(lp268
F642.0
aF1710.9278805535023
aa(lp269
aF15.0
aa(lp270
g9
a(lp271
F642.0
aF-1018.9808027106442
aa(lp272
aF15.0
aa(lp273
g9
a(lp274
F642.0
aF-1021.4820956809365
aa(lp275
aF15.0
aa(lp276
g9
a(lp277
F642.0
aF-1020.1963289226852
aa(lp278
aF15.0
aa(lp279
g9
a(lp280
F642.0
aF-1018.2156215640493
aa(lp281
aF15.0
aa(lp282
g9
a(lp283
F642.0
aF-1017.2254239721341
aa(lp284
aF15.0
aa(lp285
g9
a(lp286
F642.0
aF-1016.4059188257615
aa(lp287
aF15.0
aa(lp288
g9
a(lp289
F642.0
aF-1004.7336445939916
aa(lp290
aF15.0
aa(lp291
g9
a(lp292
F642.0
aF-1005.6063509742942
aa(lp293
aF15.0
aa(lp294
g9
a(lp295
F642.0
aF-1010.4236222578257
aa(lp296
aF15.0
aa(lp297
g9
a(lp298
F642.0
aF-1020.5996300335476
aa(lp299
aF15.0
aa(lp300
g9
a(lp301
F642.0
aF-1012.1881105882891
aa(lp302
aF15.0
aa(lp303
g9
a(lp304
F642.0
aF1475.2346278324387
aa(lp305
aF15.0
aa(lp306
g9
a(lp307
F642.0
aF1681.4450480937562
aa(lp308
aF15.0
aa(lp309
g9
a(lp310
F642.0
aF1651.9686518666442
aa(lp311
aF15.0
aa(lp312
g9
a(lp313
F642.0
aF1622.4986058139216
aa(lp314
aF15.0
aa(lp315
g9
a(lp316
F642.0
aF1593.034822621908
aa(lp317
aF15.0
aa(lp318
g9
a(lp319
F642.0
aF1563.5772137390913
aa(lp320
aF15.0
aa(lp321
g9
a(lp322
F642.0
aF1534.1256893939844
aa(lp323
aF15.0
aa(lp324
g9
a(lp325
F642.0
aF1504.2256893954741
aa(lp326
aF15.0
aa(lp327
g9
a(lp328
F642.0
aF1445.8008998664773
aa(lp329
aF15.0
aa(lp330
g9
a(lp331
F642.0
aF1416.3728866640847
aa(lp332
aF15.0
aa(lp333
g9
a(lp334
F642.0
aF1386.9504926109571
aa(lp335
aF15.0
aa(lp336
g9
a(lp337
F642.0
aF1357.5336209846485
aa(lp338
aF15.0
aa(lp339
g9
a(lp340
F642.0
aF1328.122173974044
aa(lp341
aF15.0
aa(lp342
g9
a(lp343
F642.0
aF1298.7160526990526
aa(lp344
aF15.0
aa(lp345
g9
a(lp346
F642.0
aF1269.3151572305119
aa(lp347
aF15.0
aa(lp348
g9
a(lp349
F642.0
aF1239.9193866103046
aa(lp350
aF15.0
aa(lp351
g9
a(lp352
F642.0
aF1210.5286388716843
aa(lp353
aF15.0
aa(lp354
g9
a(lp355
F642.0
aF1181.1428110597969
aa(lp356
aF15.0
aa(lp357
g9
a(lp358
F642.0
aF-1006.7111612507975
aa(lp359
aF15.0
aa(lp360
g9
a(lp361
F642.0
aF-1002.7319360321162
aa(lp362
aF15.0
aa(lp363
g9
a(lp364
F642.0
aF-1003.5624555257148
aa(lp365
aF15.0
aa(lp366
g9
a(lp367
F642.0
aF-1003.9897963571213
aa(lp368
aF15.0
aa(lp369
g9
a(lp370
F642.0
aF1151.7617992524131
aa(lp371
aF15.0
aa(lp372
g9
a(lp373
F642.0
aF1122.3854985808437
aa(lp374
aF15.0
aa(lp375
g9
a(lp376
F642.0
aF1093.0138032510561
aa(lp377
aF15.0
aa(lp378
g9
a(lp379
F642.0
aF1063.6466065649754
aa(lp380
aF15.0
aa(lp381
g9
a(lp382
F642.0
aF1034.2838009419668
aa(lp383
aF15.0
aa(lp384
g9
a(lp385
F642.0
aF1004.9252779405023
aa(lp386
aF15.0
aa(lp387
g9
a(lp388
F642.0
aF975.57092827999998
aa(lp389
aF15.0
aa(lp390
g9
a(lp391
F642.0
aF946.22064186283546
aa(lp392
aF15.0
aa(lp393
g9
a(lp394
F642.0
aF916.87430779652152
aa(lp395
aF15.0
aa(lp396
g9
a(lp397
F642.0
aF887.53181441604988
aa(lp398
aF15.0
aa(lp399
g9
a(lp400
F642.0
aF858.19304930639191
aa(lp401
aF15.0
aa(lp402
g9
a(lp403
F642.0
aF828.85789932515343
aa(lp404
aF15.0
aa(lp405
g9
a(lp406
F642.0
aF799.52625062537982
aa(lp407
aF15.0
aa(lp408
g9
a(lp409
F642.0
aF37.127315479930481
aa(lp410
aF15.0
aa(lp411
g9
a(lp412
F642.0
aF8.4631621033742519
aa(lp413
aF15.0
aa(lp414
g9
a(lp415
F642.0
aF-20.818418949057929
aa(lp416
aF15.0
aa(lp417
g9
a(lp418
F642.0
aF-1004.5453515991117
aa(lp419
aF15.0
aa(lp420
g9
a(lp421
F642.0
aF-1001.6585303537818
aa(lp422
aF15.0
aa(lp423
g9
a(lp424
F642.0
aF-1020.2692211913997
aa(lp425
aF15.0
aa(lp426
g9
a(lp427
F642.0
aF-1014.9005830963772
aa(lp428
aF15.0
aa(lp429
g9
a(lp430
F642.0
aF-1013.4326743017482
aa(lp431
aF15.0
aa(lp432
g9
a(lp433
F642.0
aF-1006.9448043158446
aa(lp434
aF15.0
aa(lp435
g9
a(lp436
F642.0
aF-1003.6366128299657
aa(lp437
aF15.0
aa(lp438
g9
a(lp439
F642.0
aF-1017.3666951781055
aa(lp440
aF15.0
aa(lp441
g9
a(lp442
F642.0
aF-1008.1353614680169
aa(lp443
aF15.0
aa(lp444
g9
a(lp445
F642.0
aF-50.100000001490116
aa(lp446
aF15.0
aa(lp447
g9
a(lp448
F642.0
aF66.410383037899109
aa(lp449
aF15.0
aa(lp450
g9
a(lp451
F642.0
aF389.1855713352731
aa(lp452
aF15.0
aa(lp453
g9
a(lp454
F642.0
aF770.19798867850716
aa(lp455
aF15.0
aa(lp456
g9
a(lp457
F642.0
aF740.87299829745086
aa(lp458
aF15.0
aa(lp459
g9
a(lp460
F642.0
aF711.55116365983565
aa(lp461
aF15.0
aa(lp462
g9
a(lp463
F642.0
aF682.23236833135252
aa(lp464
aF15.0
aa(lp465
g9
a(lp466
F642.0
aF652.91649528924415
aa(lp467
aF15.0
aa(lp468
g9
a(lp469
F642.0
aF623.60342694591282
aa(lp470
aF15.0
aa(lp471
g9
a(lp472
F642.0
aF594.29304517264404
aa(lp473
aF15.0
aa(lp474
g9
a(lp475
F642.0
aF564.98523132344314
aa(lp476
aF15.0
aa(lp477
g9
a(lp478
F642.0
aF535.67986625897902
aa(lp479
aF15.0
aa(lp480
g9
a(lp481
F642.0
aF506.37683037062925
aa(lp482
aF15.0
aa(lp483
g9
a(lp484
F642.0
aF477.07600360462328
aa(lp485
aF15.0
aa(lp486
g9
a(lp487
F642.0
aF447.77726548627749
aa(lp488
aF15.0
aa(lp489
g9
a(lp490
F642.0
aF418.48049514431574
aa(lp491
aF15.0
aa(lp492
g9
a(lp493
F642.0
aF359.89237246797506
aa(lp494
aF15.0
aa(lp495
g9
a(lp496
F642.0
aF330.60077662808794
aa(lp497
aF15.0
aa(lp498
g9
a(lp499
F642.0
aF301.31066160273474
aa(lp500
aF15.0
aa(lp501
g9
a(lp502
F642.0
aF272.02190490517228
aa(lp503
aF15.0
aa(lp504
g9
a(lp505
F642.0
aF242.73438379952211
aa(lp506
aF15.0
aa(lp507
g9
a(lp508
F642.0
aF213.44797532555165
aa(lp509
aF15.0
aa(lp510
g9
a(lp511
F642.0
aF184.1625563234995
aa(lp512
aF15.0
aa(lp513
g9
a(lp514
F642.0
aF154.87800345893868
aa(lp515
aF15.0
aa(lp516
g9
a(lp517
F642.0
aF125.59419324767391
aa(lp518
aF15.0
aa(lp519
g9
a(lp520
F642.0
aF95.694193249163845
aa(lp521
aF15.0
aa.