(lp0
(lp1
S'Line'
p2
a(F280.0
F9.0
tp3
a(F746.0
F9.0
tp4
aa(lp5
g2
a(F280.0
F8.0
tp6
a(F746.0
F8.0
tp7
aa(lp8
S'Poly'
p9
a(lp10
F320.67850513116832
aF59.996860589590895
aa(lp11
(lp12
I306
aI9
aa(lp13
I307
aI111
aa(lp14
I335
aI110
aa(lp15
I334
aI8
aaaF4661.666666666667
a(lp16
aa(lp17
g9
a(lp18
F327.32950670424907
aF117.89390886453727
aa(lp19
(lp20
I254
aI111
aa(lp21
I254
aI125
aa(lp22
I400
aI124
aa(lp23
I400
aI110
aaaF8963.3333333333339
a(lp24
aa(lp25
g9
a(lp26
F328.05316447448848
aF137.69878785691245
aa(lp27
(lp28
I226
aI125
aa(lp29
I226
aI151
aa(lp30
I429
aI149
aa(lp31
I429
aI123
aaaF17452.083333333332
a(lp32
aa(lp33
g9
a(lp34
F1028.7944172026951
aF-1000.3764867143095
aa(lp35
(lp36
I985
aI-971
aa(lp37
I1080
aI-1000
aa(lp38
I1071
aI-1029
aa(lp39
I977
aI-1000
aaaF4458.75
a(lp40
aa(lp41
g9
a(lp42
F666.32265293198259
aF55.992254934519103
aa(lp43
(lp44
I652
aI8
aa(lp45
I652
aI102
aa(lp46
I679
aI103
aa(lp47
I679
aI9
aaaF3985.4166666666665
a(lp48
aa(lp49
g9
a(lp50
F669.95897706683763
aF108.4175422978726
aa(lp51
(lp52
I613
aI102
aa(lp53
I613
aI113
aa(lp54
I726
aI113
aa(lp55
I726
aI102
aaaF5370.833333333333
a(lp56
aa(lp57
g9
a(lp58
F672.19122187782693
aF130.70635936933763
aa(lp59
(lp60
I580
aI113
aa(lp61
I580
aI147
aa(lp62
I764
aI147
aa(lp63
I764
aI113
aaaF14588.333333333334
a(lp64
aa(lp65
g9
a(lp66
F492.02624755299121
aF166.62488957719751
aa(lp67
(lp68
I332
aI150
aa(lp69
I333
aI185
aa(lp70
I651
aI182
aa(lp71
I650
aI147
aaaF42645.416666666664
a(lp72
aa(lp73
g9
a(lp74
F866.90500169416009
aF-1023.5129567835774
aa(lp75
(lp76
I1042
aI-1071
aa(lp77
I1030
aI-1103
aa(lp78
I691
aI-975
aa(lp79
I703
aI-943
aaaF55083.333333333336
a(lp80
aa(lp81
g9
a(lp82
F815.35576524182795
aF167.25044670918433
aa(lp83
(lp84
I651
aI147
aa(lp85
I651
aI182
aa(lp86
I979
aI186
aa(lp87
I979
aI151
aaaF45337.083333333336
a(lp88
aa(lp89
g9
a(lp90
F186.34697448769936
aF170.02654596510598
aa(lp91
(lp92
I39
aI153
aa(lp93
I40
aI189
aa(lp94
I333
aI186
aa(lp95
I332
aI150
aaaF36310.416666666664
a(lp96
aa(lp97
g2
a(F42.0
F151.0
tp98
a(F92.0
F153.0
tp99
aa(lp100
g2
a(F42.0
F150.0
tp101
a(F92.0
F152.0
tp102
aa(lp103
g2
a(F978.0
F152.0
tp104
a(F950.0
F150.0
tp105
aa(lp106
g2
a(F978.0
F151.0
tp107
a(F950.0
F149.0
tp108
aa(lp109
g9
a(lp110
F465.19595981300995
aF253.21536324154357
aa(lp111
(lp112
I430
aI245
aa(lp113
I457
aI287
aa(lp114
I499
aI260
aa(lp115
I472
aI218
aaaF2083.3333333333335
a(lp116
aa(lp117
S'Circle'
p118
a(lp119
F433.1304600952767
aF204.60229206467173
aa(lp120
aF20.0
aa(lp121
g118
a(lp122
F494.01152436357444
aF203.97261455424089
aa(lp123
aF20.0
aa(lp124
S'Spring'
p125
a(lp126
F494.01152436357444
aF203.97261455424089
aa(lp127
F433.1304600952767
aF204.60229206467173
aaa(lp128
g125
a(lp129
F433.1304600952767
aF204.60229206467173
aa(lp130
F465.19595981300995
aF253.21536324154357
aaa(lp131
g125
a(lp132
F494.01152436357444
aF203.97261455424089
aa(lp133
F465.19595981300995
aF253.21536324154357
aaa.