(lp0
(lp1
S'Poly'
p2
a(lp3
F521.0
aF-1005.1150000164657
aa(lp4
(lp5
I511
aI-1015
aa(lp6
I511
aI-995
aa(lp7
I531
aI-995
aa(lp8
I531
aI-1015
aaaF333.33333333333331
a(lp9
aa(lp10
g2
a(lp11
F521.0
aF-1005.1150000164657
aa(lp12
(lp13
I511
aI-1015
aa(lp14
I511
aI-995
aa(lp15
I531
aI-995
aa(lp16
I531
aI-1015
aaaF333.33333333333331
a(lp17
aa(lp18
g2
a(lp19
F521.0
aF-1005.1150000164657
aa(lp20
(lp21
I511
aI-1015
aa(lp22
I511
aI-995
aa(lp23
I531
aI-995
aa(lp24
I531
aI-1015
aaaF333.33333333333331
a(lp25
aa(lp26
g2
a(lp27
F627.94950961711368
aF-1017.9585245060958
aa(lp28
(lp29
I632
aI-1031
aa(lp30
I614
aI-1022
aa(lp31
I623
aI-1004
aa(lp32
I641
aI-1013
aaaF333.33333333333331
a(lp33
aa(lp34
g2
a(lp35
F650.07102868400898
aF-1020.2306005009611
aa(lp36
(lp37
I658
aI-1008
aa(lp38
I661
aI-1028
aa(lp39
I641
aI-1031
aa(lp40
I638
aI-1011
aaaF333.33333333333331
a(lp41
aa(lp42
g2
a(lp43
F633.12114434277669
aF-1020.7057591575392
aa(lp44
(lp45
I641
aI-1032
aa(lp46
I621
aI-1028
aa(lp47
I624
aI-1009
aa(lp48
I644
aI-1012
aaaF333.33333333333331
a(lp49
aa(lp50
g2
a(lp51
F635.92726421453551
aF-1011.6401816863621
aa(lp52
(lp53
I644
aI-1000
aa(lp54
I646
aI-1020
aa(lp55
I626
aI-1022
aa(lp56
I624
aI-1002
aaaF333.33333333333331
a(lp57
aa(lp58
g2
a(lp59
F375.94881412516031
aF-1007.3260992255782
aa(lp60
(lp61
I389
aI-1010
aa(lp62
I372
aI-1021
aa(lp63
I362
aI-1004
aa(lp64
I378
aI-993
aaaF333.33333333333331
a(lp65
aa(lp66
g2
a(lp67
F358.82866889687142
aF-1021.2749990730163
aa(lp68
(lp69
I350
aI-1010
aa(lp70
I370
aI-1012
aa(lp71
I367
aI-1032
aa(lp72
I347
aI-1029
aaaF333.33333333333331
a(lp73
aa(lp74
g2
a(lp75
F547.14096629636924
aF-1007.1674221482652
aa(lp76
(lp77
I557
aI-1017
aa(lp78
I537
aI-1017
aa(lp79
I537
aI-997
aa(lp80
I557
aI-997
aaaF333.33333333333331
a(lp81
aa(lp82
g2
a(lp83
F383.72045363162215
aF-1001.2061786273772
aa(lp84
(lp85
I396
aI-1007
aa(lp86
I377
aI-1013
aa(lp87
I371
aI-994
aa(lp88
I390
aI-988
aaaF333.33333333333331
a(lp89
aa(lp90
g2
a(lp91
F435.04199360561211
aF-1017.4586240237645
aa(lp92
(lp93
I420
aI-1017
aa(lp94
I434
aI-1003
aa(lp95
I449
aI-1017
aa(lp96
I435
aI-1031
aaaF333.33333333333331
a(lp97
aa(lp98
g2
a(lp99
F512.54050011179777
aF-1016.2739337472374
aa(lp100
(lp101
I523
aI-1025
aa(lp102
I503
aI-1027
aa(lp103
I501
aI-1007
aa(lp104
I521
aI-1005
aaaF333.33333333333331
a(lp105
aa(lp106
g2
a(lp107
F522.36535641552223
aF-1010.2971909233875
aa(lp108
(lp109
I521
aI-1024
aa(lp110
I508
aI-1009
aa(lp111
I523
aI-996
aa(lp112
I536
aI-1011
aaaF333.33333333333331
a(lp113
aa(lp114
g2
a(lp115
F494.18745361710694
aF-1012.6577310372453
aa(lp116
(lp117
I483
aI-1022
aa(lp118
I484
aI-1002
aa(lp119
I504
aI-1002
aa(lp120
I503
aI-1022
aaaF333.33333333333331
a(lp121
aa(lp122
g2
a(lp123
F509.73543193383455
aF-1025.4199292683572
aa(lp124
(lp125
I496
aI-1029
aa(lp126
I505
aI-1011
aa(lp127
I523
aI-1021
aa(lp128
I513
aI-1038
aaaF333.33333333333331
a(lp129
aa(lp130
g2
a(lp131
F586.56632386971341
aF-1028.2326829334258
aa(lp132
(lp133
I589
aI-1014
aa(lp134
I600
aI-1030
aa(lp135
I584
aI-1042
aa(lp136
I572
aI-1025
aaaF333.33333333333331
a(lp137
aa(lp138
g2
a(lp139
F610.53927798396933
aF-1012.5753900193524
aa(lp140
(lp141
I596
aI-1010
aa(lp142
I612
aI-998
aa(lp143
I624
aI-1014
aa(lp144
I608
aI-1026
aaaF333.33333333333331
a(lp145
aa(lp146
g2
a(lp147
F619.88691465662509
aF-1005.8518766855376
aa(lp148
(lp149
I607
aI-999
aa(lp150
I626
aI-993
aa(lp151
I632
aI-1012
aa(lp152
I613
aI-1018
aaaF333.33333333333331
a(lp153
aa(lp154
g2
a(lp155
F708.51173850284783
aF-1028.8353931945412
aa(lp156
(lp157
I721
aI-1024
aa(lp158
I712
aI-1042
aa(lp159
I695
aI-1033
aa(lp160
I704
aI-1015
aaaF333.33333333333331
a(lp161
aa(lp162
g2
a(lp163
F745.22336493648174
aF-1016.3783792629927
aa(lp164
(lp165
I735
aI-1026
aa(lp166
I734
aI-1006
aa(lp167
I754
aI-1006
aa(lp168
I755
aI-1026
aaaF333.33333333333331
a(lp169
aa(lp170
g2
a(lp171
F662.69609014391767
aF-1035.6234727772523
aa(lp172
(lp173
I656
aI-1048
aa(lp174
I649
aI-1029
aa(lp175
I668
aI-1022
aa(lp176
I675
aI-1041
aaaF333.33333333333331
a(lp177
aa(lp178
g2
a(lp179
F731.83587177137099
aF-1006.8256645826348
aa(lp180
(lp181
I729
aI-1020
aa(lp182
I717
aI-1004
aa(lp183
I733
aI-992
aa(lp184
I745
aI-1008
aaaF333.33333333333331
a(lp185
aa(lp186
g2
a(lp187
F711.6395811139306
aF-1011.0880316608556
aa(lp188
(lp189
I710
aI-997
aa(lp190
I725
aI-1009
aa(lp191
I713
aI-1025
aa(lp192
I697
aI-1012
aaaF333.33333333333331
a(lp193
aa(lp194
g2
a(lp195
F616.28742192358868
aF-1027.7743250255196
aa(lp196
(lp197
I618
aI-1013
aa(lp198
I630
aI-1029
aa(lp199
I614
aI-1041
aa(lp200
I602
aI-1025
aaaF333.33333333333331
a(lp201
aa(lp202
g2
a(lp203
F673.28123167444301
aF-1028.9966767081498
aa(lp204
(lp205
I683
aI-1018
aa(lp206
I683
aI-1038
aa(lp207
I663
aI-1039
aa(lp208
I663
aI-1019
aaaF333.33333333333331
a(lp209
aa(lp210
g2
a(lp211
F682.00936257190403
aF-1048.3041894769012
aa(lp212
(lp213
I695
aI-1043
aa(lp214
I686
aI-1061
aa(lp215
I668
aI-1052
aa(lp216
I677
aI-1034
aaaF333.33333333333331
a(lp217
aa(lp218
g2
a(lp219
F617.48072585053717
aF-1043.2299460881927
aa(lp220
(lp221
I606
aI-1051
aa(lp222
I608
aI-1032
aa(lp223
I628
aI-1034
aa(lp224
I626
aI-1054
aaaF333.33333333333331
a(lp225
aa(lp226
g2
a(lp227
F696.27994647327841
aF-1011.9166334672792
aa(lp228
(lp229
I703
aI-999
aa(lp230
I708
aI-1019
aa(lp231
I688
aI-1023
aa(lp232
I684
aI-1004
aaaF333.33333333333331
a(lp233
aa(lp234
g2
a(lp235
F799.25016003930648
aF-1025.1283078616927
aa(lp236
(lp237
I809
aI-1035
aa(lp238
I789
aI-1035
aa(lp239
I789
aI-1015
aa(lp240
I809
aI-1015
aaaF333.33333333333331
a(lp241
aa(lp242
g2
a(lp243
F674.75406544638372
aF-1026.0877138694923
aa(lp244
(lp245
I683
aI-1014
aa(lp246
I686
aI-1034
aa(lp247
I666
aI-1037
aa(lp248
I663
aI-1017
aaaF333.33333333333331
a(lp249
aa(lp250
g2
a(lp251
F643.74614291066212
aF-1039.9262260360726
aa(lp252
(lp253
I634
aI-1050
aa(lp254
I633
aI-1030
aa(lp255
I653
aI-1029
aa(lp256
I654
aI-1049
aaaF333.33333333333331
a(lp257
aa(lp258
g2
a(lp259
F821.59044884928392
aF-1019.4917182848375
aa(lp260
(lp261
I828
aI-1031
aa(lp262
I809
aI-1026
aa(lp263
I814
aI-1007
aa(lp264
I833
aI-1012
aaaF333.33333333333331
a(lp265
aa(lp266
g2
a(lp267
F799.37599586496674
aF35.517755639595904
aa(lp268
(lp269
I971
aI62
aa(lp270
I970
aI7
aa(lp271
I627
aI8
aa(lp272
I628
aI63
aaaF50280.833333333336
a(lp273
aa(lp274
g2
a(lp275
F747.78601830498621
aF63.469373888248739
aa(lp276
(lp277
I754
aI63
aa(lp278
I740
aI62
aa(lp279
I740
aI63
aa(lp280
I754
aI64
aaaF82.083333333333329
a(lp281
aa(lp282
g2
a(lp283
F1070.5695084886686
aF-1005.5744148731036
aa(lp284
(lp285
I1192
aI-955
aa(lp286
I959
aI-1077
aa(lp287
I948
aI-1055
aa(lp288
I1181
aI-933
aaaF29080.833333333332
a(lp289
aa(lp290
g2
a(lp291
F1285.3490618896651
aF-1015.3462598552031
aa(lp292
(lp293
I1385
aI-813
aa(lp294
I1472
aI-889
aa(lp295
I1185
aI-1217
aa(lp296
I1098
aI-1141
aaaF84717.083333333328
a(lp297
aa(lp298
g2
a(lp299
F656.75657522704682
aF81.934360672130325
aa(lp300
(lp301
I681
aI63
aa(lp302
I630
aI63
aa(lp303
I631
aI100
aa(lp304
I682
aI100
aaaF1654.1666666666667
a(lp305
aa(lp306
g2
a(lp307
F848.34545957412195
aF100.70259706493584
aa(lp308
(lp309
I672
aI101
aa(lp310
I678
aI145
aa(lp311
I1023
aI100
aa(lp312
I1017
aI55
aaaF51303.75
a(lp313
aa(lp314
g2
a(lp315
F731.33854130790348
aF178.0130457453748
aa(lp316
(lp317
I645
aI150
aa(lp318
I655
aI227
aa(lp319
I817
aI206
aa(lp320
I807
aI128
aaaF13605.416666666666
a(lp321
aa(lp322
S'Circle'
p323
a(lp324
F-2299.6737078519582
aF-1015.8498598065748
aa(lp325
aF10.0
aa(lp326
g2
a(lp327
F1091.0522579028275
aF27.211422458044648
aa(lp328
(lp329
I1020
aI37
aa(lp330
I1025
aI56
aa(lp331
I1162
aI17
aa(lp332
I1156
aI-1
aaaF8568.3333333333339
a(lp333
aa(lp334
g2
a(lp335
F998.60750647494126
aF-1013.8385288894536
aa(lp336
(lp337
I979
aI-997
aa(lp338
I1013
aI-993
aa(lp339
I1017
aI-1029
aa(lp340
I984
aI-1034
aaaF1052.0833333333333
a(lp341
aa(lp342
g2
a(lp343
F1043.3575318130777
aF12.923006914266809
aa(lp344
(lp345
I1030
aI-1
aa(lp346
I1030
aI26
aa(lp347
I1055
aI26
aa(lp348
I1055
aI-1
aaaF587.08333333333337
a(lp349
aa(lp350
g2
a(lp351
F875.7983879280556
aF30.404118854388052
aa(lp352
(lp353
I863
aI-1
aa(lp354
I863
aI61
aa(lp355
I888
aI61
aa(lp356
I888
aI-1
aaaF1914.1666666666667
a(lp357
aa(lp358
g2
a(lp359
F933.05187422372785
aF53.324423492799816
aa(lp360
(lp361
I857
aI80
aa(lp362
I874
aI107
aa(lp363
I1008
aI26
aa(lp364
I991
aI-1
aaaF10697.083333333334
a(lp365
aa(lp366
S'Line'
p367
a(F0.0
F178.0
tp368
a(F214.0
F179.0
tp369
aF0.0
aa(lp370
g367
a(F0.0
F177.0
tp371
a(F214.0
F178.0
tp372
aF2.0
aa(lp373
g367
a(F214.0
F179.0
tp374
a(F214.0
F179.0
tp375
aF0.0
aa(lp376
g367
a(F214.0
F178.0
tp377
a(F214.0
F178.0
tp378
aF2.0
aa(lp379
g367
a(F214.0
F179.0
tp380
a(F229.0
F162.0
tp381
aF0.0
aa(lp382
g367
a(F214.0
F178.0
tp383
a(F229.0
F161.0
tp384
aF2.0
aa(lp385
g367
a(F229.0
F162.0
tp386
a(F229.0
F161.0
tp387
aF0.0
aa(lp388
g367
a(F229.0
F161.0
tp389
a(F229.0
F160.0
tp390
aF2.0
aa(lp391
g367
a(F230.0
F161.0
tp392
a(F237.0
F131.0
tp393
aF0.0
aa(lp394
g367
a(F230.0
F160.0
tp395
a(F237.0
F130.0
tp396
aF2.0
aa(lp397
g367
a(F237.0
F131.0
tp398
a(F243.0
F96.0
tp399
aF0.0
aa(lp400
g367
a(F237.0
F130.0
tp401
a(F243.0
F95.0
tp402
aF2.0
aa(lp403
g367
a(F243.0
F96.0
tp404
a(F234.0
F43.0
tp405
aF0.0
aa(lp406
g367
a(F243.0
F95.0
tp407
a(F234.0
F42.0
tp408
aF2.0
aa(lp409
g367
a(F234.0
F43.0
tp410
a(F233.0
F-4.0
tp411
aF0.0
aa(lp412
g367
a(F234.0
F42.0
tp413
a(F233.0
F-5.0
tp414
aF2.0
aa(lp415
g367
a(F233.0
F-4.0
tp416
a(F229.0
F-51.0
tp417
aF0.0
aa(lp418
g367
a(F233.0
F-5.0
tp419
a(F229.0
F-52.0
tp420
aF2.0
aa(lp421
g367
a(F229.0
F-51.0
tp422
a(F229.0
F-54.0
tp423
aF0.0
aa(lp424
g367
a(F229.0
F-52.0
tp425
a(F229.0
F-55.0
tp426
aF2.0
aa(lp427
g367
a(F229.0
F-55.0
tp428
a(F228.0
F-68.0
tp429
aF0.0
aa(lp430
g367
a(F229.0
F-56.0
tp431
a(F228.0
F-69.0
tp432
aF2.0
aa(lp433
g367
a(F881.0
F-61.0
tp434
a(F877.0
F0.0
tp435
aF0.0
aa(lp436
g367
a(F881.0
F-62.0
tp437
a(F877.0
F-1.0
tp438
aF2.0
aa(lp439
g367
a(F877.0
F0.0
tp440
a(F898.0
F119.0
tp441
aF0.0
aa(lp442
g367
a(F877.0
F-1.0
tp443
a(F898.0
F118.0
tp444
aF2.0
aa(lp445
g367
a(F898.0
F119.0
tp446
a(F894.0
F153.0
tp447
aF0.0
aa(lp448
g367
a(F898.0
F118.0
tp449
a(F894.0
F152.0
tp450
aF2.0
aa(lp451
g367
a(F894.0
F153.0
tp452
a(F900.0
F171.0
tp453
aF0.0
aa(lp454
g367
a(F894.0
F152.0
tp455
a(F900.0
F170.0
tp456
aF2.0
aa(lp457
g367
a(F900.0
F171.0
tp458
a(F924.0
F176.0
tp459
aF0.0
aa(lp460
g367
a(F900.0
F170.0
tp461
a(F924.0
F175.0
tp462
aF2.0
aa(lp463
g367
a(F924.0
F176.0
tp464
a(F1278.0
F176.0
tp465
aF0.0
aa(lp466
g367
a(F924.0
F175.0
tp467
a(F1278.0
F175.0
tp468
aF2.0
aa(lp469
g367
a(F37.0
F174.0
tp470
a(F37.0
F150.0
tp471
aF0.0
aa(lp472
g367
a(F37.0
F173.0
tp473
a(F37.0
F149.0
tp474
aF2.0
aa(lp475
g367
a(F37.0
F150.0
tp476
a(F71.0
F150.0
tp477
aF0.0
aa(lp478
g367
a(F37.0
F149.0
tp479
a(F71.0
F149.0
tp480
aF2.0
aa(lp481
g367
a(F71.0
F150.0
tp482
a(F71.0
F176.0
tp483
aF0.0
aa(lp484
g367
a(F71.0
F149.0
tp485
a(F71.0
F175.0
tp486
aF2.0
aa(lp487
g323
a(lp488
F58.000441716332993
aF160.89999999850977
aa(lp489
aF10.0
aa(lp490
g367
a(F1123.0
F174.0
tp491
a(F1123.0
F150.0
tp492
aF0.0
aa(lp493
g367
a(F1123.0
F173.0
tp494
a(F1123.0
F149.0
tp495
aF2.0
aa(lp496
g367
a(F1123.0
F150.0
tp497
a(F1163.0
F150.0
tp498
aF0.0
aa(lp499
g367
a(F1123.0
F149.0
tp500
a(F1163.0
F149.0
tp501
aF2.0
aa(lp502
g367
a(F1163.0
F150.0
tp503
a(F1164.0
F174.0
tp504
aF0.0
aa(lp505
g367
a(F1163.0
F149.0
tp506
a(F1164.0
F173.0
tp507
aF2.0
aa(lp508
g323
a(lp509
F1144.0
aF160.89999999850977
aa(lp510
aF10.0
aa(lp511
g323
a(lp512
F191.85038200926147
aF163.97838781875353
aa(lp513
aF10.0
aa(lp514
g323
a(lp515
F937.0
aF-1004.0
aa(lp516
aF10.0
aa(lp517
g367
a(F167.0
F176.0
tp518
a(F188.0
F151.0
tp519
aF0.0
aa(lp520
g367
a(F167.0
F175.0
tp521
a(F188.0
F150.0
tp522
aF2.0
aa(lp523
g367
a(F188.0
F151.0
tp524
a(F205.0
F157.0
tp525
aF0.0
aa(lp526
g367
a(F188.0
F150.0
tp527
a(F205.0
F156.0
tp528
aF2.0
aa(lp529
g367
a(F205.0
F157.0
tp530
a(F205.0
F176.0
tp531
aF0.0
aa(lp532
g367
a(F205.0
F156.0
tp533
a(F205.0
F175.0
tp534
aF2.0
aa(lp535
g367
a(F949.0
F139.0
tp536
a(F960.0
F171.0
tp537
aF0.0
aa(lp538
g367
a(F949.0
F138.0
tp539
a(F960.0
F170.0
tp540
aF2.0
aa(lp541
g323
a(lp542
F945.42110588309754
aF163.04960503250931
aa(lp543
aF10.0
aa(lp544
g367
a(F923.0
F153.0
tp545
a(F953.0
F148.0
tp546
aF0.0
aa(lp547
g367
a(F923.0
F152.0
tp548
a(F953.0
F147.0
tp549
aF2.0
aa(lp550
g367
a(F934.0
F173.0
tp551
a(F933.0
F155.0
tp552
aF0.0
aa(lp553
g367
a(F934.0
F172.0
tp554
a(F933.0
F154.0
tp555
aF2.0
aa(lp556
g2
a(lp557
F374.985625629673
aF-1022.1642905230406
aa(lp558
(lp559
I415
aI-996
aa(lp560
I358
aI-1067
aa(lp561
I334
aI-1047
aa(lp562
I391
aI-977
aaaF3850.8333333333335
a(lp563
aa.