(lp0
(lp1
S'Circle'
p2
a(lp3
F1217.001635330759
aF-1004.6601239332037
aa(lp4
aF10.0
aa(lp5
g2
a(lp6
F716.11080968625242
aF-1067.903787041879
aa(lp7
aF10.0
aa(lp8
g2
a(lp9
F962.88952131333826
aF-1013.1006140286188
aa(lp10
aF10.0
aa(lp11
S'Poly'
p12
a(lp13
F-234.68045113090469
aF-1019.2761727255986
aa(lp14
(lp15
I-214
aI-1020
aa(lp16
I-218
aI-1032
aa(lp17
I-255
aI-1018
aa(lp18
I-250
aI-1006
aaaF704.16666666666663
a(lp19
aa(lp20
g2
a(lp21
F349.0
aF-1022.8333333333338
aa(lp22
aF10.0
aa(lp23
g2
a(lp24
F3931.9999999999864
aF-1020.2500000000063
aa(lp25
aF10.0
aa(lp26
g2
a(lp27
F2184.8333333333371
aF-1019.3333333333291
aa(lp28
aF10.0
aa(lp29
g2
a(lp30
F349.00000000000006
aF-1008.2499999999995
aa(lp31
aF10.0
aa(lp32
g2
a(lp33
F982.71581016669984
aF-1005.4273575634684
aa(lp34
aF10.0
aa(lp35
g2
a(lp36
F1022.9735188515687
aF-1035.3073976479156
aa(lp37
aF10.0
aa(lp38
g2
a(lp39
F1005.5725019336398
aF-1012.4090906000505
aa(lp40
aF10.0
aa(lp41
g2
a(lp42
F957.82922915619929
aF-1000.063371890374
aa(lp43
aF10.0
aa(lp44
g2
a(lp45
F947.69004407148509
aF-1020.7663555626
aa(lp46
aF10.0
aa(lp47
g2
a(lp48
F755.51771072850818
aF-1000.2067570669387
aa(lp49
aF10.0
aa(lp50
g2
a(lp51
F899.41251378270783
aF-1002.6979991007817
aa(lp52
aF10.0
aa(lp53
g2
a(lp54
F835.12798606980061
aF-1006.0561155824761
aa(lp55
aF10.0
aa(lp56
g2
a(lp57
F709.75902501603571
aF-1006.1124240711523
aa(lp58
aF10.0
aa(lp59
g2
a(lp60
F666.22430188175463
aF-1012.4242833773829
aa(lp61
aF10.0
aa(lp62
g2
a(lp63
F909.75235571749704
aF-1009.2492316114059
aa(lp64
aF10.0
aa(lp65
g2
a(lp66
F819.91872379263782
aF-1019.9760777571978
aa(lp67
aF10.0
aa(lp68
g2
a(lp69
F898.03480666380335
aF-1001.1942298077971
aa(lp70
aF10.0
aa(lp71
g2
a(lp72
F736.53621338938615
aF-1022.0285739895726
aa(lp73
aF10.0
aa(lp74
g2
a(lp75
F884.01057056234526
aF-1000.7129401612241
aa(lp76
aF10.0
aa(lp77
g2
a(lp78
F984.72986146605285
aF-1018.9540600223726
aa(lp79
aF10.0
aa(lp80
g2
a(lp81
F851.12450534439802
aF-1038.1562039470482
aa(lp82
aF10.0
aa(lp83
g2
a(lp84
F866.14265977478669
aF-1001.4153556775085
aa(lp85
aF10.0
aa(lp86
g2
a(lp87
F953.64595511461937
aF-1002.741259730872
aa(lp88
aF10.0
aa(lp89
g2
a(lp90
F963.13638628471801
aF-1006.70447671084
aa(lp91
aF10.0
aa(lp92
g2
a(lp93
F940.61591047198567
aF-1006.7673500420351
aa(lp94
aF10.0
aa(lp95
g2
a(lp96
F898.42564929906439
aF-1005.8044832503733
aa(lp97
aF10.0
aa(lp98
g2
a(lp99
F828.99842270305487
aF-1008.948573589558
aa(lp100
aF10.0
aa(lp101
g2
a(lp102
F1144.0470576597954
aF-1013.2095430601208
aa(lp103
aF10.0
aa(lp104
g2
a(lp105
F1022.2531297667116
aF-1024.3638700578438
aa(lp106
aF10.0
aa(lp107
g2
a(lp108
F940.95278472626319
aF-1007.3064464782408
aa(lp109
aF10.0
aa(lp110
g2
a(lp111
F1038.0044751978965
aF-1004.4684671564434
aa(lp112
aF10.0
aa(lp113
g2
a(lp114
F996.1986086249193
aF-1025.2347455152178
aa(lp115
aF10.0
aa(lp116
g2
a(lp117
F46.232392392260024
aF-1018.5893887369243
aa(lp118
aF10.0
aa(lp119
g2
a(lp120
F-138.04920275016158
aF-1002.9134765008407
aa(lp121
aF10.0
aa(lp122
g2
a(lp123
F-304.06351709997938
aF-1001.2514474099336
aa(lp124
aF10.0
aa(lp125
g2
a(lp126
F-74.813002811509193
aF-1008.2353553946231
aa(lp127
aF10.0
aa(lp128
g2
a(lp129
F-47.18822041977495
aF-1000.7590022156828
aa(lp130
aF10.0
aa(lp131
g2
a(lp132
F578.37079383201467
aF-1014.755705675908
aa(lp133
aF10.0
aa(lp134
g2
a(lp135
F-33.953586496284707
aF-1018.0472175806643
aa(lp136
aF10.0
aa(lp137
g2
a(lp138
F624.4650642311949
aF-1014.1494762264823
aa(lp139
aF10.0
aa(lp140
g2
a(lp141
F-191.08135237265003
aF-1030.6757685374535
aa(lp142
aF10.0
aa(lp143
g2
a(lp144
F156.77784256971768
aF-1020.5062900328156
aa(lp145
aF10.0
aa(lp146
g2
a(lp147
F734.90562221633729
aF-1014.1311293598608
aa(lp148
aF10.0
aa(lp149
g2
a(lp150
F195.92372777808828
aF-1007.7161849113502
aa(lp151
aF10.0
aa(lp152
g2
a(lp153
F-0.61843755137430012
aF-1018.1140103109429
aa(lp154
aF10.0
aa(lp155
g2
a(lp156
F104.80899548991184
aF-1010.1220833446503
aa(lp157
aF10.0
aa(lp158
g2
a(lp159
F129.02481944845465
aF-1001.3413963407776
aa(lp160
aF10.0
aa(lp161
g2
a(lp162
F-35.381037224588681
aF-1010.160380242751
aa(lp163
aF10.0
aa(lp164
g2
a(lp165
F40.056957508165809
aF-1001.9256539872608
aa(lp166
aF10.0
aa(lp167
g2
a(lp168
F194.34521777743677
aF-1010.8695654726105
aa(lp169
aF10.0
aa(lp170
g2
a(lp171
F55.386005709616988
aF-1008.266735467198
aa(lp172
aF10.0
aa(lp173
g2
a(lp174
F211.00835214684255
aF-1011.9765458113123
aa(lp175
aF10.0
aa(lp176
g2
a(lp177
F202.81145144321141
aF-1012.925636210747
aa(lp178
aF10.0
aa(lp179
g2
a(lp180
F-299.01444484025365
aF-1000.9285835593355
aa(lp181
aF10.0
aa(lp182
g2
a(lp183
F177.06193169032807
aF-1019.3406142357475
aa(lp184
aF10.0
aa(lp185
g2
a(lp186
F-510.65494738990827
aF-1009.3457695475859
aa(lp187
aF10.0
aa(lp188
g2
a(lp189
F166.73029666563443
aF-1000.2148454163454
aa(lp190
aF10.0
aa(lp191
g2
a(lp192
F-18.751672870167805
aF-1018.5147752191075
aa(lp193
aF10.0
aa(lp194
g2
a(lp195
F190.36771734019311
aF-1005.7312313468142
aa(lp196
aF10.0
aa(lp197
g2
a(lp198
F133.08774505018982
aF-1008.3168958108934
aa(lp199
aF10.0
aa(lp200
g2
a(lp201
F189.94748980115719
aF-1014.4515282968041
aa(lp202
aF10.0
aa(lp203
g2
a(lp204
F747.47442391434379
aF-1006.3790936297758
aa(lp205
aF10.0
aa(lp206
g2
a(lp207
F154.33115293605857
aF-1006.1609077295185
aa(lp208
aF10.0
aa(lp209
g2
a(lp210
F43.553908522841787
aF-1008.4566928571865
aa(lp211
aF10.0
aa(lp212
g2
a(lp213
F699.12559217300111
aF-1018.8935405279751
aa(lp214
aF10.0
aa(lp215
g2
a(lp216
F124.29641384398619
aF-1010.1197012293829
aa(lp217
aF10.0
aa(lp218
g2
a(lp219
F714.21986306841268
aF-1006.2329137313282
aa(lp220
aF10.0
aa(lp221
g2
a(lp222
F126.61699190845985
aF-1005.157833117271
aa(lp223
aF10.0
aa(lp224
g2
a(lp225
F817.98483123897142
aF-1017.0086380664929
aa(lp226
aF10.0
aa(lp227
g2
a(lp228
F695.00637120997533
aF-1015.9055547474757
aa(lp229
aF10.0
aa(lp230
g2
a(lp231
F745.92598918824797
aF-1016.5354608978413
aa(lp232
aF10.0
aa(lp233
g2
a(lp234
F692.12205890646271
aF-1018.0537316335169
aa(lp235
aF10.0
aa(lp236
g2
a(lp237
F695.15811298293352
aF-1013.5735429128654
aa(lp238
aF10.0
aa(lp239
g2
a(lp240
F812.61351660834703
aF-1017.1047603886011
aa(lp241
aF10.0
aa(lp242
g2
a(lp243
F133.22958624910544
aF-1001.0596119560746
aa(lp244
aF10.0
aa(lp245
g2
a(lp246
F716.69844622102505
aF-1016.6235185985676
aa(lp247
aF10.0
aa(lp248
g2
a(lp249
F810.67832768964161
aF-1015.0688108818815
aa(lp250
aF10.0
aa(lp251
g2
a(lp252
F857.40662763707269
aF-1009.9199234778293
aa(lp253
aF10.0
aa(lp254
g2
a(lp255
F745.84746634491353
aF-1005.0513289239382
aa(lp256
aF10.0
aa(lp257
g2
a(lp258
F642.5018406754491
aF-1006.4092840705763
aa(lp259
aF10.0
aa(lp260
g2
a(lp261
F728.26565652541001
aF-1013.16280002542
aa(lp262
aF10.0
aa(lp263
g2
a(lp264
F650.66834234546161
aF-1011.2050880346322
aa(lp265
aF10.0
aa(lp266
g2
a(lp267
F747.94659464606048
aF-1001.6998518566451
aa(lp268
aF10.0
aa(lp269
g2
a(lp270
F833.08474955363499
aF-1016.641723274825
aa(lp271
aF10.0
aa(lp272
g2
a(lp273
F228.43683974975065
aF-1002.18153293265
aa(lp274
aF10.0
aa(lp275
g2
a(lp276
F844.27014004056252
aF-1010.3584498047798
aa(lp277
aF10.0
aa(lp278
g2
a(lp279
F757.79028828828575
aF-1009.2957027560665
aa(lp280
aF10.0
aa(lp281
g2
a(lp282
F732.58664865846276
aF-1003.2254515218358
aa(lp283
aF10.0
aa(lp284
g2
a(lp285
F823.31436641812365
aF-1021.9534424393072
aa(lp286
aF10.0
aa(lp287
g2
a(lp288
F687.61723247796465
aF-1012.2502895041839
aa(lp289
aF10.0
aa(lp290
g2
a(lp291
F198.803349640563
aF-1020.7246281628851
aa(lp292
aF10.0
aa(lp293
g2
a(lp294
F743.06331880157666
aF-1007.235484700632
aa(lp295
aF10.0
aa(lp296
g2
a(lp297
F191.30189389370776
aF-1001.3124135671512
aa(lp298
aF10.0
aa(lp299
g2
a(lp300
F176.55103354495998
aF-1001.4125909880656
aa(lp301
aF10.0
aa(lp302
g2
a(lp303
F722.10658591373169
aF-1006.4173255049188
aa(lp304
aF10.0
aa(lp305
g2
a(lp306
F78.469577281862115
aF-1019.0821591159382
aa(lp307
aF10.0
aa(lp308
g2
a(lp309
F81.600127707999036
aF-1020.2723628367148
aa(lp310
aF10.0
aa(lp311
g2
a(lp312
F185.32155718992345
aF-1011.4825990318968
aa(lp313
aF10.0
aa(lp314
g2
a(lp315
F181.43485027527817
aF-1017.2974737427672
aa(lp316
aF10.0
aa(lp317
g2
a(lp318
F169.76223189787092
aF-1021.0458710800071
aa(lp319
aF10.0
aa(lp320
g2
a(lp321
F169.49776810644389
aF-1021.2584255496823
aa(lp322
aF10.0
aa(lp323
g2
a(lp324
F146.60902691307032
aF-1020.388742765087
aa(lp325
aF10.0
aa(lp326
g2
a(lp327
F147.41598199073846
aF-1017.8352105758223
aa(lp328
aF10.0
aa(lp329
g2
a(lp330
F178.01264745227212
aF-1007.9239125139987
aa(lp331
aF10.0
aa(lp332
g2
a(lp333
F183.58729805245642
aF-1017.5394136629898
aa(lp334
aF10.0
aa(lp335
g2
a(lp336
F183.50512690394723
aF-1018.1176057516323
aa(lp337
aF10.0
aa(lp338
g2
a(lp339
F186.84390859794752
aF-1004.9916037931588
aa(lp340
aF10.0
aa(lp341
g2
a(lp342
F181.98778148568718
aF-1006.1815655745307
aa(lp343
aF10.0
aa(lp344
g2
a(lp345
F185.18256368773376
aF-1002.3957903624067
aa(lp346
aF10.0
aa(lp347
g2
a(lp348
F149.83921521969944
aF-1009.5944764890902
aa(lp349
aF10.0
aa(lp350
g2
a(lp351
F826.04580435079527
aF-1011.5167554073377
aa(lp352
aF10.0
aa(lp353
g2
a(lp354
F140.03883218062299
aF-1006.4202667957472
aa(lp355
aF10.0
aa(lp356
g2
a(lp357
F737.21631088719221
aF-1016.0077623521463
aa(lp358
aF10.0
aa(lp359
g2
a(lp360
F782.67299575148331
aF-1017.5169635193361
aa(lp361
aF10.0
aa(lp362
g2
a(lp363
F141.47401785728016
aF-1017.9066683271395
aa(lp364
aF10.0
aa(lp365
g2
a(lp366
F178.7736553291553
aF-1006.36515015962
aa(lp367
aF10.0
aa(lp368
g2
a(lp369
F198.44123846286033
aF-1012.4888429500243
aa(lp370
aF10.0
aa(lp371
g2
a(lp372
F183.28230698476401
aF-1014.4586765076573
aa(lp373
aF10.0
aa(lp374
g2
a(lp375
F457.00021232149692
aF-1003.4184581105358
aa(lp376
aF10.0
aa(lp377
g2
a(lp378
F456.99999891054625
aF-1005.4133326223243
aa(lp379
aF10.0
aa(lp380
g2
a(lp381
F457.00129862940139
aF-1013.9999751911453
aa(lp382
aF10.0
aa(lp383
g2
a(lp384
F456.99982877435252
aF-1013.8519396611008
aa(lp385
aF10.0
aa(lp386
g2
a(lp387
F457.00330037213547
aF-1015.8169003007538
aa(lp388
aF10.0
aa(lp389
g2
a(lp390
F456.99741710054815
aF-1017.2018422650251
aa(lp391
aF10.0
aa(lp392
g2
a(lp393
F457.02115593925214
aF-1018.1354739351248
aa(lp394
aF10.0
aa(lp395
g2
a(lp396
F456.99430939882859
aF-1013.643566190632
aa(lp397
aF10.0
aa(lp398
g2
a(lp399
F457.01432832255369
aF-1008.9937269964959
aa(lp400
aF10.0
aa(lp401
g2
a(lp402
F456.99913215811574
aF-1002.6809300992395
aa(lp403
aF10.0
aa(lp404
g2
a(lp405
F747.58565646415741
aF-1011.9648685249736
aa(lp406
aF10.0
aa(lp407
g2
a(lp408
F710.34301525549995
aF-1020.6056106013654
aa(lp409
aF10.0
aa(lp410
g2
a(lp411
F836.94380227829106
aF-1003.5727042794767
aa(lp412
aF10.0
aa(lp413
g2
a(lp414
F830.36763333360238
aF-1008.3855737397389
aa(lp415
aF10.0
aa(lp416
g2
a(lp417
F902.95142186524811
aF-1000.6496174602382
aa(lp418
aF10.0
aa(lp419
g2
a(lp420
F743.01628698326317
aF-1016.6393968211918
aa(lp421
aF10.0
aa(lp422
g2
a(lp423
F881.03482634816044
aF-1003.0572492380446
aa(lp424
aF10.0
aa(lp425
g2
a(lp426
F777.16032090689066
aF-1004.2067100296447
aa(lp427
aF10.0
aa(lp428
g2
a(lp429
F853.84227060668161
aF-1000.9412742951499
aa(lp430
aF10.0
aa(lp431
g2
a(lp432
F794.29401783432047
aF-1010.4431465379222
aa(lp433
aF10.0
aa(lp434
g2
a(lp435
F816.00390854383852
aF-1016.5687563542792
aa(lp436
aF10.0
aa(lp437
g2
a(lp438
F194.49832928794217
aF-1011.6624649062887
aa(lp439
aF10.0
aa(lp440
g2
a(lp441
F791.75494527288652
aF-1018.1708930302711
aa(lp442
aF10.0
aa(lp443
g2
a(lp444
F700.98312456132317
aF-1014.1864974079697
aa(lp445
aF10.0
aa(lp446
g2
a(lp447
F202.34938407150332
aF-1017.2912225418229
aa(lp448
aF10.0
aa(lp449
g2
a(lp450
F724.20215194160187
aF-1008.6316427352575
aa(lp451
aF10.0
aa(lp452
g2
a(lp453
F710.85060867761047
aF-1011.0238867141309
aa(lp454
aF10.0
aa(lp455
g2
a(lp456
F844.23566426688194
aF-1001.8173769065307
aa(lp457
aF10.0
aa(lp458
g2
a(lp459
F835.73670240209776
aF-1007.8335704586602
aa(lp460
aF10.0
aa(lp461
g2
a(lp462
F745.40918708780919
aF-1009.7436794198375
aa(lp463
aF10.0
aa(lp464
g2
a(lp465
F760.78782206029939
aF-1002.0728267648542
aa(lp466
aF10.0
aa(lp467
g2
a(lp468
F791.41036368676384
aF-1021.3420999291377
aa(lp469
aF10.0
aa(lp470
g2
a(lp471
F452.0
aF-1000.25
aa(lp472
aF10.0
aa(lp473
g2
a(lp474
F452.0
aF-1000.25
aa(lp475
aF10.0
aa(lp476
S'Line'
p477
a(F391.0
F-64.0
tp478
a(F815.0
F-64.0
tp479
aa(lp480
g477
a(F391.0
F-65.0
tp481
a(F815.0
F-65.0
tp482
aa(lp483
g12
a(lp484
F603.67237509280574
aF60.210326579400089
aa(lp485
(lp486
I423
aI55
aa(lp487
I423
aI64
aa(lp488
I783
aI64
aa(lp489
I783
aI55
aaaF54033.75
a(lp490
aa.