(lp0
(lp1
S'Circle'
p2
a(lp3
F945.36649112181158
aF-1015.4629009092265
aa(lp4
aF10.0
aa(lp5
g2
a(lp6
F942.76520979942256
aF-1002.9909151262683
aa(lp7
aF10.0
aa(lp8
g2
a(lp9
F952.5096567451285
aF-1014.9398560265505
aa(lp10
aF10.0
aa(lp11
g2
a(lp12
F643.27273712654767
aF-1011.2986255086003
aa(lp13
aF10.0
aa(lp14
g2
a(lp15
F1001.304362821091
aF-1003.3791725151607
aa(lp16
aF10.0
aa(lp17
g2
a(lp18
F983.22034564905925
aF-1013.9342732036217
aa(lp19
aF10.0
aa(lp20
g2
a(lp21
F989.01526476254935
aF-1025.6199320871958
aa(lp22
aF10.0
aa(lp23
g2
a(lp24
F-980.28990056684472
aF-1003.0681576217095
aa(lp25
aF10.0
aa(lp26
g2
a(lp27
F931.32266618655865
aF-1017.9590386324904
aa(lp28
aF10.0
aa(lp29
g2
a(lp30
F-1393.5832069859616
aF-1005.5034341654141
aa(lp31
aF10.0
aa(lp32
g2
a(lp33
F88.892168743568135
aF-1024.0570718239203
aa(lp34
aF10.0
aa(lp35
g2
a(lp36
F-648.96887708884924
aF-1010.7798317117645
aa(lp37
aF10.0
aa(lp38
g2
a(lp39
F-78.666402373902102
aF-1017.9673042807684
aa(lp40
aF10.0
aa(lp41
g2
a(lp42
F-52.567038939974466
aF-1023.0352567569175
aa(lp43
aF10.0
aa(lp44
g2
a(lp45
F-796.40118035991338
aF-1026.5327235435952
aa(lp46
aF10.0
aa(lp47
g2
a(lp48
F616.06678946981583
aF-1010.5979564625696
aa(lp49
aF10.0
aa(lp50
g2
a(lp51
F-1539.4046449310354
aF-1003.0229890938784
aa(lp52
aF10.0
aa(lp53
g2
a(lp54
F548.38940260094705
aF-1020.7092706686933
aa(lp55
aF10.0
aa(lp56
g2
a(lp57
F593.45032305945415
aF-1023.8706710880563
aa(lp58
aF10.0
aa(lp59
g2
a(lp60
F564.50654573783595
aF-1024.2385594692355
aa(lp61
aF10.0
aa(lp62
g2
a(lp63
F954.73027799752811
aF-1024.8222011329628
aa(lp64
aF10.0
aa(lp65
g2
a(lp66
F952.11340044168958
aF-1005.4690257864839
aa(lp67
aF10.0
aa(lp68
g2
a(lp69
F936.79242888569786
aF-1006.2998809102043
aa(lp70
aF10.0
aa(lp71
g2
a(lp72
F-638.53926173355842
aF-1014.734209041345
aa(lp73
aF10.0
aa(lp74
g2
a(lp75
F935.78725834676197
aF-1005.2138501110796
aa(lp76
aF10.0
aa(lp77
g2
a(lp78
F-406.23868202935273
aF-1017.7610782262594
aa(lp79
aF10.0
aa(lp80
g2
a(lp81
F1050.0924695184867
aF-1005.7460573652786
aa(lp82
aF10.0
aa(lp83
g2
a(lp84
F576.04783586853466
aF-1017.8113501418225
aa(lp85
aF10.0
aa(lp86
g2
a(lp87
F1071.8043339036853
aF-1006.6447335170695
aa(lp88
aF10.0
aa(lp89
g2
a(lp90
F957.8002708017608
aF-1011.119968653574
aa(lp91
aF10.0
aa(lp92
g2
a(lp93
F-525.88628339404966
aF-1026.0015424134444
aa(lp94
aF10.0
aa(lp95
g2
a(lp96
F938.99595146392551
aF-1016.7807816480189
aa(lp97
aF10.0
aa(lp98
S'Poly'
p99
a(lp100
F1285.6366502109702
aF-1011.0084156433288
aa(lp101
(lp102
I1293
aI-1045
aa(lp103
I1251
aI-1019
aa(lp104
I1277
aI-976
aa(lp105
I1320
aI-1002
aaaF2083.3333333333335
a(lp106
aa(lp107
g2
a(lp108
F1338.5739146420062
aF-1003.3618638204599
aa(lp109
aF20.0
aa(lp110
g2
a(lp111
F1291.6673794963046
aF-1019.7401782114287
aa(lp112
aF20.0
aa(lp113
g99
a(lp114
F-1371.0302016746523
aF-1019.3358310199353
aa(lp115
(lp116
I-1337
aI-1031
aa(lp117
I-1383
aI-1052
aa(lp118
I-1404
aI-1007
aa(lp119
I-1359
aI-986
aaaF2083.3333333333335
a(lp120
aa(lp121
g2
a(lp122
F-1311.6164470568053
aF-1007.9123108136068
aa(lp123
aF20.0
aa(lp124
g2
a(lp125
F-1387.062515804746
aF-1000.638883393577
aa(lp126
aF20.0
aa(lp127
g99
a(lp128
F1360.1100780469833
aF-1022.5235634802867
aa(lp129
(lp130
I1368
aI-988
aa(lp131
I1394
aI-1030
aa(lp132
I1352
aI-1056
aa(lp133
I1325
aI-1014
aaaF2083.3333333333335
a(lp134
aa(lp135
g2
a(lp136
F1403.6214745535883
aF-1003.2879772061125
aa(lp137
aF20.0
aa(lp138
g2
a(lp139
F1348.3715867726817
aF-1019.5507320543339
aa(lp140
aF20.0
aa(lp141
g99
a(lp142
F-134.94633802405306
aF-1025.9482241250832
aa(lp143
(lp144
I-111
aI-1052
aa(lp145
I-161
aI-1049
aa(lp146
I-158
aI-999
aa(lp147
I-108
aI-1002
aaaF2083.3333333333335
a(lp148
aa(lp149
g2
a(lp150
F-95.40888347489927
aF-1023.7674061482547
aa(lp151
aF20.0
aa(lp152
g2
a(lp153
F-74.245355527284204
aF-1025.6447327770895
aa(lp154
aF20.0
aa(lp155
g99
a(lp156
F63.924781183827207
aF-1006.5239129033253
aa(lp157
(lp158
I91
aI-984
aa(lp159
I86
aI-1033
aa(lp160
I36
aI-1029
aa(lp161
I41
aI-979
aaaF2083.3333333333335
a(lp162
aa(lp163
g2
a(lp164
F53.704741112242004
aF-1015.6859540329664
aa(lp165
aF20.0
aa(lp166
g2
a(lp167
F108.74902095509597
aF-1028.2451829300924
aa(lp168
aF20.0
aa(lp169
g99
a(lp170
F1522.2170535428502
aF-1023.6226155090172
aa(lp171
(lp172
I1493
aI-1003
aa(lp173
I1542
aI-994
aa(lp174
I1551
aI-1044
aa(lp175
I1501
aI-1052
aaaF2083.3333333333335
a(lp176
aa(lp177
g2
a(lp178
F1462.2878723175859
aF-1019.1604686659105
aa(lp179
aF20.0
aa(lp180
g2
a(lp181
F1478.0969646978351
aF-1015.1310173069998
aa(lp182
aF20.0
aa(lp183
g99
a(lp184
F720.0
aF-1021.25
aa(lp185
(lp186
I717
aI-1022
aa(lp187
I717
aI-1019
aa(lp188
I723
aI-1019
aa(lp189
I723
aI-1022
aaaF18.75
a(lp190
aa(lp191
g99
a(lp192
F139.0
aF-1018.0
aa(lp193
(lp194
L0L
aL0L
aa(lp195
L0L
aL0L
aa(lp196
L0L
aL0L
aa(lp197
L0L
aL0L
aaaFnan
a(lp198
aa(lp199
g99
a(lp200
F139.0
aF-1019.0
aa(lp201
(lp202
L0L
aL0L
aa(lp203
L0L
aL0L
aa(lp204
L0L
aL0L
aa(lp205
L0L
aL0L
aaaFnan
a(lp206
aa(lp207
g99
a(lp208
F139.0
aF-1019.0
aa(lp209
(lp210
L0L
aL0L
aa(lp211
L0L
aL0L
aa(lp212
L0L
aL0L
aa(lp213
L0L
aL0L
aaaFnan
a(lp214
aa(lp215
g99
a(lp216
F663.74393327443784
aF-1005.2496772830191
aa(lp217
(lp218
I664
aI-1002
aa(lp219
I665
aI-1002
aa(lp220
I663
aI-1008
aa(lp221
I662
aI-1007
aaaF15.416666666666666
a(lp222
aa(lp223
g99
a(lp224
F616.9010496453285
aF-1011.5771925398506
aa(lp225
(lp226
I626
aI-1007
aa(lp227
I612
aI-1020
aa(lp228
I607
aI-1015
aa(lp229
I621
aI-1002
aaaF170.83333333333334
a(lp230
aa(lp231
g99
a(lp232
F636.84089994596536
aF-1013.4184707735301
aa(lp233
(lp234
I639
aI-989
aa(lp235
I653
aI-996
aa(lp236
I633
aI-1036
aa(lp237
I620
aI-1030
aaaF937.5
a(lp238
aa(lp239
g2
a(lp240
F372.03195263234551
aF-1003.035152370502
aa(lp241
aF20.0
aa(lp242
g99
a(lp243
F516.10592203897943
aF369.0609321855319
aa(lp244
(lp245
I551
aI371
aa(lp246
I518
aI333
aa(lp247
I480
aI367
aa(lp248
I514
aI404
aaaF2083.3333333333335
a(lp249
aa(lp250
g99
a(lp251
F601.87445169622981
aF155.23093879517481
aa(lp252
(lp253
I513
aI188
aa(lp254
I682
aI203
aa(lp255
I689
aI122
aa(lp256
I521
aI106
aaaF14702.083333333334
a(lp257
aa(lp258
g99
a(lp259
F350.40865761897993
aF240.78895358443907
aa(lp260
(lp261
I298
aI295
aa(lp262
I349
aI315
aa(lp263
I402
aI186
aa(lp264
I351
aI165
aaaF9427.0833333333339
a(lp265
aa(lp266
g2
a(lp267
F945.36649112181158
aF-1015.4629009092265
aa(lp268
aF10.0
aa(lp269
g2
a(lp270
F942.76520979942256
aF-1002.9909151262683
aa(lp271
aF10.0
aa(lp272
g2
a(lp273
F952.5096567451285
aF-1014.9398560265505
aa(lp274
aF10.0
aa(lp275
g2
a(lp276
F643.27273712654767
aF-1011.2986255086003
aa(lp277
aF10.0
aa(lp278
g2
a(lp279
F1001.304362821091
aF-1003.3791725151607
aa(lp280
aF10.0
aa(lp281
g2
a(lp282
F983.22034564905925
aF-1013.9342732036217
aa(lp283
aF10.0
aa(lp284
g2
a(lp285
F989.01526476254935
aF-1025.6199320871958
aa(lp286
aF10.0
aa(lp287
g2
a(lp288
F-980.28990056684472
aF-1003.0681576217095
aa(lp289
aF10.0
aa(lp290
g2
a(lp291
F931.32266618655865
aF-1017.9590386324904
aa(lp292
aF10.0
aa(lp293
g2
a(lp294
F-1393.5832069859616
aF-1005.5034341654141
aa(lp295
aF10.0
aa(lp296
g2
a(lp297
F88.892168743568135
aF-1024.0570718239203
aa(lp298
aF10.0
aa(lp299
g2
a(lp300
F-648.96887708884924
aF-1010.7798317117645
aa(lp301
aF10.0
aa(lp302
g2
a(lp303
F-78.666402373902102
aF-1017.9673042807684
aa(lp304
aF10.0
aa(lp305
g2
a(lp306
F-52.567038939974466
aF-1023.0352567569175
aa(lp307
aF10.0
aa(lp308
g2
a(lp309
F-796.40118035991338
aF-1026.5327235435952
aa(lp310
aF10.0
aa(lp311
g2
a(lp312
F616.06678946981583
aF-1010.5979564625696
aa(lp313
aF10.0
aa(lp314
g2
a(lp315
F-1539.4046449310354
aF-1003.0229890938784
aa(lp316
aF10.0
aa(lp317
g2
a(lp318
F548.38940260094705
aF-1020.7092706686933
aa(lp319
aF10.0
aa(lp320
g2
a(lp321
F593.45032305945415
aF-1023.8706710880563
aa(lp322
aF10.0
aa(lp323
g2
a(lp324
F564.50654573783595
aF-1024.2385594692355
aa(lp325
aF10.0
aa(lp326
g2
a(lp327
F954.73027799752811
aF-1024.8222011329628
aa(lp328
aF10.0
aa(lp329
g2
a(lp330
F952.11340044168958
aF-1005.4690257864839
aa(lp331
aF10.0
aa(lp332
g2
a(lp333
F936.79242888569786
aF-1006.2998809102043
aa(lp334
aF10.0
aa(lp335
g2
a(lp336
F-638.53926173355842
aF-1014.734209041345
aa(lp337
aF10.0
aa(lp338
g2
a(lp339
F935.78725834676197
aF-1005.2138501110796
aa(lp340
aF10.0
aa(lp341
g2
a(lp342
F-406.23868202935273
aF-1017.7610782262594
aa(lp343
aF10.0
aa(lp344
g2
a(lp345
F1050.0924695184867
aF-1005.7460573652786
aa(lp346
aF10.0
aa(lp347
g2
a(lp348
F576.04783586853466
aF-1017.8113501418225
aa(lp349
aF10.0
aa(lp350
g2
a(lp351
F1071.8043339036853
aF-1006.6447335170695
aa(lp352
aF10.0
aa(lp353
g2
a(lp354
F957.8002708017608
aF-1011.119968653574
aa(lp355
aF10.0
aa(lp356
g2
a(lp357
F-525.88628339404966
aF-1026.0015424134444
aa(lp358
aF10.0
aa(lp359
g2
a(lp360
F938.99595146392551
aF-1016.7807816480189
aa(lp361
aF10.0
aa(lp362
g99
a(lp363
F1285.6366502109702
aF-1011.0084156433288
aa(lp364
(lp365
I1293
aI-1045
aa(lp366
I1251
aI-1019
aa(lp367
I1277
aI-976
aa(lp368
I1320
aI-1002
aaaF2083.3333333333335
a(lp369
aa(lp370
g2
a(lp371
F1338.5739146420062
aF-1003.3618638204599
aa(lp372
aF20.0
aa(lp373
g2
a(lp374
F1291.6673794963046
aF-1019.7401782114287
aa(lp375
aF20.0
aa(lp376
g99
a(lp377
F-1371.0302016746523
aF-1019.3358310199353
aa(lp378
(lp379
I-1337
aI-1031
aa(lp380
I-1383
aI-1052
aa(lp381
I-1404
aI-1007
aa(lp382
I-1359
aI-986
aaaF2083.3333333333335
a(lp383
aa(lp384
g2
a(lp385
F-1311.6164470568053
aF-1007.9123108136068
aa(lp386
aF20.0
aa(lp387
g2
a(lp388
F-1387.062515804746
aF-1000.638883393577
aa(lp389
aF20.0
aa(lp390
g99
a(lp391
F1360.1100780469833
aF-1022.5235634802867
aa(lp392
(lp393
I1368
aI-988
aa(lp394
I1394
aI-1030
aa(lp395
I1352
aI-1056
aa(lp396
I1325
aI-1014
aaaF2083.3333333333335
a(lp397
aa(lp398
g2
a(lp399
F1403.6214745535883
aF-1003.2879772061125
aa(lp400
aF20.0
aa(lp401
g2
a(lp402
F1348.3715867726817
aF-1019.5507320543339
aa(lp403
aF20.0
aa(lp404
g99
a(lp405
F-134.94633802405306
aF-1025.9482241250832
aa(lp406
(lp407
I-111
aI-1052
aa(lp408
I-161
aI-1049
aa(lp409
I-158
aI-999
aa(lp410
I-108
aI-1002
aaaF2083.3333333333335
a(lp411
aa(lp412
g2
a(lp413
F-95.40888347489927
aF-1023.7674061482547
aa(lp414
aF20.0
aa(lp415
g2
a(lp416
F-74.245355527284204
aF-1025.6447327770895
aa(lp417
aF20.0
aa(lp418
g99
a(lp419
F63.924781183827207
aF-1006.5239129033253
aa(lp420
(lp421
I91
aI-984
aa(lp422
I86
aI-1033
aa(lp423
I36
aI-1029
aa(lp424
I41
aI-979
aaaF2083.3333333333335
a(lp425
aa(lp426
g2
a(lp427
F53.704741112242004
aF-1015.6859540329664
aa(lp428
aF20.0
aa(lp429
g2
a(lp430
F108.74902095509597
aF-1028.2451829300924
aa(lp431
aF20.0
aa(lp432
g99
a(lp433
F1522.2170535428502
aF-1023.6226155090172
aa(lp434
(lp435
I1493
aI-1003
aa(lp436
I1542
aI-994
aa(lp437
I1551
aI-1044
aa(lp438
I1501
aI-1052
aaaF2083.3333333333335
a(lp439
aa(lp440
g2
a(lp441
F1462.2878723175859
aF-1019.1604686659105
aa(lp442
aF20.0
aa(lp443
g2
a(lp444
F1478.0969646978351
aF-1015.1310173069998
aa(lp445
aF20.0
aa(lp446
g99
a(lp447
F720.0
aF-1021.25
aa(lp448
(lp449
I717
aI-1022
aa(lp450
I717
aI-1019
aa(lp451
I723
aI-1019
aa(lp452
I723
aI-1022
aaaF18.75
a(lp453
aa(lp454
g99
a(lp455
F675.12781463319334
aF-0.45988925944139991
aa(lp456
(lp457
I642
aI-15
aa(lp458
I660
aI31
aa(lp459
I707
aI14
aa(lp460
I689
aI-32
aaaF2083.3333333333335
a(lp461
aa(lp462
g2
a(lp463
F682.1141289428441
aF-66.515481151154503
aa(lp464
aF20.0
aa(lp465
g2
a(lp466
F729.67191717017943
aF-35.663757673793697
aa(lp467
aF20.0
aa(lp468
g99
a(lp469
F637.70588356325641
aF-59.30083341785884
aa(lp470
(lp471
I660
aI-86
aa(lp472
I610
aI-81
aa(lp473
I615
aI-31
aa(lp474
I665
aI-36
aaaF2083.3333333333335
a(lp475
aa(lp476
g2
a(lp477
F614.09466228361055
aF-121.27176928752553
aa(lp478
aF20.0
aa(lp479
g2
a(lp480
F671.78384607875626
aF-114.69319886243582
aa(lp481
aF20.0
aa(lp482
g99
a(lp483
F565.49567583071325
aF-0.90351547468983862
aa(lp484
(lp485
I598
aI-14
aa(lp486
I552
aI-33
aa(lp487
I532
aI12
aa(lp488
I578
aI31
aaaF2083.3333333333335
a(lp489
aa(lp490
g2
a(lp491
F534.81161982976641
aF-54.857876078194899
aa(lp492
aF20.0
aa(lp493
g2
a(lp494
F592.84485640051946
aF-57.352409335311329
aa(lp495
aF20.0
aa(lp496
g99
a(lp497
F597.302762729238
aF229.82807839338776
aa(lp498
(lp499
I566
aI246
aa(lp500
I613
aI261
aa(lp501
I628
aI213
aa(lp502
I580
aI198
aaaF2083.3333333333335
a(lp503
aa(lp504
g2
a(lp505
F546.30034179713584
aF188.60736870346096
aa(lp506
aF20.0
aa(lp507
g2
a(lp508
F599.22130383091792
aF164.51334424057148
aa(lp509
aF20.0
aa(lp510
g99
a(lp511
F546.83610511727238
aF-345.40778055210791
aa(lp512
(lp513
I514
aI-359
aa(lp514
I532
aI-313
aa(lp515
I579
aI-331
aa(lp516
I561
aI-377
aaaF2083.3333333333335
a(lp517
aa(lp518
g2
a(lp519
F522.37505877484432
aF-406.87277877635279
aa(lp520
aF20.0
aa(lp521
g2
a(lp522
F581.80522844414247
aF-398.47111338544846
aa(lp523
aF20.0
aa(lp524
g99
a(lp525
F544.12762236676076
aF-260.63572055786585
aa(lp526
(lp527
I509
aI-252
aa(lp528
I552
aI-226
aa(lp529
I578
aI-269
aa(lp530
I535
aI-294
aaaF2083.3333333333335
a(lp531
aa(lp532
g2
a(lp533
F576.17505479034673
aF-308.63324221297307
aa(lp534
aF20.0
aa(lp535
g2
a(lp536
F511.35480549840952
aF-312.88124942043436
aa(lp537
aF20.0
aa(lp538
g99
a(lp539
F570.4360614977935
aF90.564830581708961
aa(lp540
(lp541
I592
aI118
aa(lp542
I597
aI68
aa(lp543
I548
aI63
aa(lp544
I542
aI112
aaaF2083.3333333333335
a(lp545
aa(lp546
g2
a(lp547
F540.11253032047046
aF37.107206557472551
aa(lp548
aF20.0
aa(lp549
g2
a(lp550
F600.25926890886183
aF32.139916829977182
aa(lp551
aF20.0
aa(lp552
g99
a(lp553
F626.28668799098534
aF69.079911926603657
aa(lp554
(lp555
I636
aI35
aa(lp556
I592
aI58
aa(lp557
I615
aI102
aa(lp558
I660
aI79
aaaF2083.3333333333335
a(lp559
aa(lp560
g2
a(lp561
F629.26078485438143
aF4.9822234366216795
aa(lp562
aF20.0
aa(lp563
g2
a(lp564
F679.21137602650231
aF45.993695822960625
aa(lp565
aF20.0
aa(lp566
g99
a(lp567
F588.90213745068206
aF522.80935931383976
aa(lp568
(lp569
I564
aI496
aa(lp570
I562
aI546
aa(lp571
I612
aI548
aa(lp572
I614
aI498
aaaF2083.3333333333335
a(lp573
aa(lp574
g2
a(lp575
F616.29249361434643
aF464.81671170059337
aa(lp576
aF20.0
aa(lp577
g2
a(lp578
F654.74901139658834
aF511.4547515519634
aa(lp579
aF20.0
aa(lp580
S'Line'
p581
a(F559.0
F538.0
tp582
a(F562.0
F501.0
tp583
aa(lp584
g581
a(F559.0
F537.0
tp585
a(F562.0
F500.0
tp586
aa(lp587
g581
a(F560.0
F498.0
tp588
a(F618.0
F499.0
tp589
aa(lp590
g581
a(F560.0
F497.0
tp591
a(F618.0
F498.0
tp592
aa(lp593
g581
a(F614.0
F503.0
tp594
a(F615.0
F556.0
tp595
aa(lp596
g581
a(F614.0
F502.0
tp597
a(F615.0
F555.0
tp598
aa(lp599
g581
a(F608.0
F554.0
tp600
a(F551.0
F546.0
tp601
aa(lp602
g581
a(F608.0
F553.0
tp603
a(F551.0
F545.0
tp604
aa(lp605
g581
a(F551.0
F545.0
tp606
a(F562.0
F506.0
tp607
aa(lp608
g581
a(F551.0
F544.0
tp609
a(F562.0
F505.0
tp610
aa(lp611
S'Spring'
p612
a(lp613
F729.67191717017943
aF-35.663757673793697
aa(lp614
F682.1141289428441
aF-66.515481151154503
aaa(lp615
g612
a(lp616
F682.1141289428441
aF-66.515481151154503
aa(lp617
F675.12781463319334
aF-0.45988925944139991
aaa(lp618
g612
a(lp619
F729.67191717017943
aF-35.663757673793697
aa(lp620
F675.12781463319334
aF-0.45988925944139991
aaa(lp621
g612
a(lp622
F671.78384607875626
aF-114.69319886243582
aa(lp623
F614.09466228361055
aF-121.27176928752553
aaa(lp624
g612
a(lp625
F614.09466228361055
aF-121.27176928752553
aa(lp626
F637.70588356325641
aF-59.30083341785884
aaa(lp627
g612
a(lp628
F671.78384607875626
aF-114.69319886243582
aa(lp629
F637.70588356325641
aF-59.30083341785884
aaa(lp630
g612
a(lp631
F592.84485640051946
aF-57.352409335311329
aa(lp632
F534.81161982976641
aF-54.857876078194899
aaa(lp633
g612
a(lp634
F534.81161982976641
aF-54.857876078194899
aa(lp635
F565.49567583071325
aF-0.90351547468983862
aaa(lp636
g612
a(lp637
F592.84485640051946
aF-57.352409335311329
aa(lp638
F565.49567583071325
aF-0.90351547468983862
aaa(lp639
g612
a(lp640
F599.22130383091792
aF164.51334424057148
aa(lp641
F546.30034179713584
aF188.60736870346096
aaa(lp642
g612
a(lp643
F546.30034179713584
aF188.60736870346096
aa(lp644
F597.302762729238
aF229.82807839338776
aaa(lp645
g612
a(lp646
F599.22130383091792
aF164.51334424057148
aa(lp647
F597.302762729238
aF229.82807839338776
aaa(lp648
g612
a(lp649
F581.80522844414247
aF-398.47111338544846
aa(lp650
F522.37505877484432
aF-406.87277877635279
aaa(lp651
g612
a(lp652
F522.37505877484432
aF-406.87277877635279
aa(lp653
F546.83610511727238
aF-345.40778055210791
aaa(lp654
g612
a(lp655
F581.80522844414247
aF-398.47111338544846
aa(lp656
F546.83610511727238
aF-345.40778055210791
aaa(lp657
g612
a(lp658
F511.35480549840952
aF-312.88124942043436
aa(lp659
F576.17505479034673
aF-308.63324221297307
aaa(lp660
g612
a(lp661
F576.17505479034673
aF-308.63324221297307
aa(lp662
F544.12762236676076
aF-260.63572055786585
aaa(lp663
g612
a(lp664
F511.35480549840952
aF-312.88124942043436
aa(lp665
F544.12762236676076
aF-260.63572055786585
aaa(lp666
g612
a(lp667
F600.25926890886183
aF32.139916829977182
aa(lp668
F540.11253032047046
aF37.107206557472551
aaa(lp669
g612
a(lp670
F540.11253032047046
aF37.107206557472551
aa(lp671
F570.4360614977935
aF90.564830581708961
aaa(lp672
g612
a(lp673
F600.25926890886183
aF32.139916829977182
aa(lp674
F570.4360614977935
aF90.564830581708961
aaa(lp675
g612
a(lp676
F679.21137602650231
aF45.993695822960625
aa(lp677
F629.26078485438143
aF4.9822234366216795
aaa(lp678
g612
a(lp679
F629.26078485438143
aF4.9822234366216795
aa(lp680
F626.28668799098534
aF69.079911926603657
aaa(lp681
g612
a(lp682
F679.21137602650231
aF45.993695822960625
aa(lp683
F626.28668799098534
aF69.079911926603657
aaa(lp684
g612
a(lp685
F654.74901139658834
aF511.4547515519634
aa(lp686
F616.29249361434643
aF464.81671170059337
aaa(lp687
g612
a(lp688
F616.29249361434643
aF464.81671170059337
aa(lp689
F588.90213745068206
aF522.80935931383976
aaa(lp690
g612
a(lp691
F654.74901139658834
aF511.4547515519634
aa(lp692
F588.90213745068206
aF522.80935931383976
aaa(lp693
g612
a(lp694
F549.83610511727238
aF-334.40778055210791
aa(lp695
F564.49567583071325
aF-0.90351547468983862
aaa(lp696
g612
a(lp697
F564.49567583071325
aF-0.90351547468983862
aa(lp698
F544.12762236676076
aF-260.63572055786585
aaa(lp699
g612
a(lp700
F576.49567583071325
aF-4.9035154746898382
aa(lp701
F601.302762729238
aF225.82807839338776
aaa(lp702
g612
a(lp703
F601.302762729238
aF225.82807839338776
aa(lp704
F663.12781463319334
aF7.5401107405585996
aaa(lp705
g612
a(lp706
F569.4360614977935
aF82.564830581708961
aa(lp707
F592.90213745068206
aF527.80935931383976
aaa(lp708
g612
a(lp709
F592.90213745068206
aF527.80935931383976
aa(lp710
F633.28668799098534
aF75.079911926603657
aaa(lp711
g612
a(lp712
F612.302762729238
aF240.82807839338776
aa(lp713
F643.70588356325641
aF-58.30083341785884
aaa(lp714
g612
a(lp715
F604.90213745068206
aF543.80935931383976
aa(lp716
F589.302762729238
aF232.82807839338776
aaa.