(lp0
(lp1
S'Circle'
p2
a(lp3
F-78.411191280741633
aF-1001.6571406530609
aa(lp4
aF10.0
aa(lp5
g2
a(lp6
F-1019.7934068106962
aF-1023.3970056058452
aa(lp7
aF10.0
aa(lp8
g2
a(lp9
F-1006.9059555084941
aF-1024.5323252730302
aa(lp10
aF10.0
aa(lp11
g2
a(lp12
F-9542.9739333465568
aF-1053.0503570677899
aa(lp13
aF10.0
aa(lp14
g2
a(lp15
F-335.86019181793284
aF-1005.2854170317731
aa(lp16
aF10.0
aa(lp17
g2
a(lp18
F-3911.7620081988812
aF-1007.0713892441809
aa(lp19
aF10.0
aa(lp20
g2
a(lp21
F-268.5433150707367
aF-1020.810514468687
aa(lp22
aF10.0
aa(lp23
g2
a(lp24
F-265.11546433844057
aF-1030.6850422922519
aa(lp25
aF10.0
aa(lp26
g2
a(lp27
F-164.49234532015234
aF-1011.7539921701092
aa(lp28
aF10.0
aa(lp29
g2
a(lp30
F-1971.1453545690317
aF-1036.8822655940387
aa(lp31
aF10.0
aa(lp32
g2
a(lp33
F-362.70667729179621
aF-1010.9011867511081
aa(lp34
aF10.0
aa(lp35
g2
a(lp36
F-1143.7105665098866
aF-1017.5053673725334
aa(lp37
aF10.0
aa(lp38
g2
a(lp39
F-1550.7347671694195
aF-1024.8467662000417
aa(lp40
aF10.0
aa(lp41
g2
a(lp42
F-9807.7146703523103
aF-1011.2143767835612
aa(lp43
aF10.0
aa(lp44
g2
a(lp45
F-6130.9413925126937
aF-1039.4974876287708
aa(lp46
aF10.0
aa(lp47
g2
a(lp48
F-6349.4962626295292
aF-1031.5390091939962
aa(lp49
aF10.0
aa(lp50
g2
a(lp51
F1015.7501098052456
aF-1020.7185906086278
aa(lp52
aF10.0
aa(lp53
g2
a(lp54
F-696.70557544874009
aF-1002.3787517988148
aa(lp55
aF10.0
aa(lp56
g2
a(lp57
F-4603.3273958665277
aF-1009.9093623446061
aa(lp58
aF10.0
aa(lp59
g2
a(lp60
F-1650.7306846443428
aF-1028.0431416928202
aa(lp61
aF10.0
aa(lp62
g2
a(lp63
F-139.84924333673766
aF-1013.013187764
aa(lp64
aF10.0
aa(lp65
g2
a(lp66
F-6101.3669392565398
aF-1009.0608600990994
aa(lp67
aF10.0
aa(lp68
g2
a(lp69
F-4865.8055912446962
aF-1020.5266933947613
aa(lp70
aF10.0
aa(lp71
g2
a(lp72
F-10765.448868927604
aF-1052.0477883050642
aa(lp73
aF10.0
aa(lp74
g2
a(lp75
F-5460.8830250147821
aF-1041.4469563479131
aa(lp76
aF10.0
aa(lp77
g2
a(lp78
F-4744.1023116078677
aF-1002.7160261787632
aa(lp79
aF10.0
aa(lp80
g2
a(lp81
F1091.2697087227264
aF-1026.8408469144083
aa(lp82
aF10.0
aa(lp83
g2
a(lp84
F-1508.1675221260298
aF-1017.3685166155311
aa(lp85
aF10.0
aa(lp86
g2
a(lp87
F-10692.360982832699
aF-1003.6523831592457
aa(lp88
aF10.0
aa(lp89
g2
a(lp90
F-201.55370549057841
aF-1017.3953123286411
aa(lp91
aF10.0
aa(lp92
g2
a(lp93
F1788.9983194015729
aF-1010.281361503248
aa(lp94
aF10.0
aa(lp95
g2
a(lp96
F1398.1264290584757
aF-1009.7645464362458
aa(lp97
aF10.0
aa(lp98
g2
a(lp99
F-959.28103738282232
aF-1017.3152075896573
aa(lp100
aF10.0
aa(lp101
g2
a(lp102
F-780.78374732019927
aF-1033.1806620287496
aa(lp103
aF10.0
aa(lp104
g2
a(lp105
F869.7859437553368
aF-1011.2251573186202
aa(lp106
aF10.0
aa(lp107
g2
a(lp108
F839.66162503953615
aF-1026.0016457945762
aa(lp109
aF10.0
aa(lp110
g2
a(lp111
F1077.7539057394079
aF-1027.3862406544652
aa(lp112
aF10.0
aa(lp113
g2
a(lp114
F1888.7955310727248
aF-1010.3098206078841
aa(lp115
aF10.0
aa(lp116
g2
a(lp117
F1640.3097213123694
aF-1017.5300368613731
aa(lp118
aF10.0
aa(lp119
g2
a(lp120
F1221.5102844464075
aF-1016.9922394921668
aa(lp121
aF10.0
aa(lp122
g2
a(lp123
F883.70427940063598
aF-1011.4827964720993
aa(lp124
aF10.0
aa(lp125
g2
a(lp126
F852.18912064169933
aF-1004.073250929456
aa(lp127
aF10.0
aa(lp128
g2
a(lp129
F920.14695050611124
aF-1009.000712273049
aa(lp130
aF10.0
aa(lp131
g2
a(lp132
F805.62364120316613
aF-1021.8931480288786
aa(lp133
aF10.0
aa(lp134
g2
a(lp135
F1001.1331632250603
aF-1015.1313489184109
aa(lp136
aF10.0
aa(lp137
g2
a(lp138
F-3346.6224338318261
aF-1032.3761479760988
aa(lp139
aF10.0
aa(lp140
g2
a(lp141
F-706.69724692365287
aF-1012.2768256157218
aa(lp142
aF10.0
aa(lp143
g2
a(lp144
F761.26903984712089
aF-1005.4230718272779
aa(lp145
aF10.0
aa(lp146
g2
a(lp147
F-77.424306754343903
aF-1000.7969455253311
aa(lp148
aF10.0
aa(lp149
g2
a(lp150
F-329.51823207902322
aF-1029.3415969279977
aa(lp151
aF10.0
aa(lp152
g2
a(lp153
F2422.7158395893607
aF-1035.7045394303261
aa(lp154
aF10.0
aa(lp155
g2
a(lp156
F4964.1502005213042
aF-1019.8531506934829
aa(lp157
aF10.0
aa(lp158
g2
a(lp159
F1312.5151066147823
aF-1023.5713311062644
aa(lp160
aF10.0
aa(lp161
g2
a(lp162
F-3933.9686339003792
aF-1038.9529201795951
aa(lp163
aF10.0
aa(lp164
g2
a(lp165
F-1541.0698588825273
aF-1021.2609164933858
aa(lp166
aF10.0
aa(lp167
g2
a(lp168
F-1463.0945957610991
aF-1009.6936719454619
aa(lp169
aF10.0
aa(lp170
g2
a(lp171
F4321.8037619907282
aF-1022.0656950584745
aa(lp172
aF10.0
aa(lp173
g2
a(lp174
F-2470.0451396060539
aF-1010.0769349232717
aa(lp175
aF10.0
aa(lp176
g2
a(lp177
F-5693.6013849105611
aF-1004.5603438885241
aa(lp178
aF10.0
aa(lp179
g2
a(lp180
F-1093.3869736435934
aF-1022.7569060358759
aa(lp181
aF10.0
aa(lp182
g2
a(lp183
F-708.38866484743949
aF-1023.8462493862182
aa(lp184
aF10.0
aa(lp185
S'Line'
p186
a(F42.0
F569.0
tp187
a(F20.0
F548.0
tp188
aa(lp189
g186
a(F42.0
F568.0
tp190
a(F20.0
F547.0
tp191
aa(lp192
g186
a(F20.0
F548.0
tp193
a(F154.0
F429.0
tp194
aa(lp195
g186
a(F20.0
F547.0
tp196
a(F154.0
F428.0
tp197
aa(lp198
g2
a(lp199
F607.24231254226152
aF-1001.6769405607986
aa(lp200
aF10.0
aa(lp201
g2
a(lp202
F892.20023182883347
aF-1015.4009537850097
aa(lp203
aF10.0
aa(lp204
g186
a(F193.0
F371.0
tp205
a(F216.0
F351.0
tp206
aa(lp207
g186
a(F193.0
F370.0
tp208
a(F216.0
F350.0
tp209
aa(lp210
g186
a(F216.0
F351.0
tp211
a(F288.0
F413.0
tp212
aa(lp213
g186
a(F216.0
F350.0
tp214
a(F288.0
F412.0
tp215
aa(lp216
g186
a(F461.0
F396.0
tp217
a(F391.0
F363.0
tp218
aa(lp219
g186
a(F461.0
F395.0
tp220
a(F391.0
F362.0
tp221
aa(lp222
g186
a(F391.0
F363.0
tp223
a(F383.0
F383.0
tp224
aa(lp225
g186
a(F391.0
F362.0
tp226
a(F383.0
F382.0
tp227
aa(lp228
g186
a(F527.0
F552.0
tp229
a(F519.0
F372.0
tp230
aa(lp231
g186
a(F527.0
F551.0
tp232
a(F519.0
F371.0
tp233
aa(lp234
g186
a(F462.0
F293.0
tp235
a(F571.0
F273.0
tp236
aa(lp237
g186
a(F462.0
F292.0
tp238
a(F571.0
F272.0
tp239
aa(lp240
g186
a(F605.0
F226.0
tp241
a(F703.0
F313.0
tp242
aa(lp243
g186
a(F605.0
F225.0
tp244
a(F703.0
F312.0
tp245
aa(lp246
g186
a(F838.0
F350.0
tp247
a(F775.0
F285.0
tp248
aa(lp249
g186
a(F838.0
F349.0
tp250
a(F775.0
F284.0
tp251
aa(lp252
g186
a(F931.0
F490.0
tp253
a(F923.0
F287.0
tp254
aa(lp255
g186
a(F931.0
F489.0
tp256
a(F923.0
F286.0
tp257
aa(lp258
g2
a(lp259
F888.09742368374452
aF-1022.5488868962382
aa(lp260
aF10.0
aa(lp261
g2
a(lp262
F895.59605908323226
aF-1008.3501871787657
aa(lp263
aF10.0
aa(lp264
g186
a(F823.0
F298.0
tp265
a(F860.0
F241.0
tp266
aa(lp267
g186
a(F823.0
F297.0
tp268
a(F860.0
F240.0
tp269
aa(lp270
g186
a(F860.0
F241.0
tp271
a(F932.0
F226.0
tp272
aa(lp273
g186
a(F860.0
F240.0
tp274
a(F932.0
F225.0
tp275
aa(lp276
g186
a(F932.0
F226.0
tp277
a(F990.0
F247.0
tp278
aa(lp279
g186
a(F932.0
F225.0
tp280
a(F990.0
F246.0
tp281
aa(lp282
g186
a(F990.0
F247.0
tp283
a(F1006.0
F270.0
tp284
aa(lp285
g186
a(F990.0
F246.0
tp286
a(F1006.0
F269.0
tp287
aa(lp288
g2
a(lp289
F1561.9879437538721
aF-1010.8218598044383
aa(lp290
aF10.0
aa(lp291
g186
a(F1059.0
F274.0
tp292
a(F1059.0
F382.0
tp293
aa(lp294
g186
a(F1059.0
F273.0
tp295
a(F1059.0
F381.0
tp296
aa(lp297
g2
a(lp298
F18580.861644793975
aF-1062.9980797856851
aa(lp299
aF10.0
aa(lp300
g2
a(lp301
F973.08522407894327
aF-1002.6410043377316
aa(lp302
aF10.0
aa(lp303
g186
a(F1074.0
F246.0
tp304
a(F1021.0
F189.0
tp305
aa(lp306
g186
a(F1074.0
F245.0
tp307
a(F1021.0
F188.0
tp308
aa(lp309
g186
a(F994.0
F180.0
tp310
a(F954.0
F122.0
tp311
aa(lp312
g186
a(F994.0
F179.0
tp313
a(F954.0
F121.0
tp314
aa(lp315
g2
a(lp316
F926.55760018492379
aF-1021.2054353642538
aa(lp317
aF10.0
aa(lp318
g2
a(lp319
F931.26410543244538
aF-1005.948178966436
aa(lp320
aF10.0
aa(lp321
g186
a(F85.0
F492.0
tp322
a(F116.0
F525.0
tp323
aa(lp324
g186
a(F85.0
F491.0
tp325
a(F116.0
F524.0
tp326
aa(lp327
g2
a(lp328
F900.14222759892823
aF-1023.1890354739518
aa(lp329
aF10.0
aa(lp330
g2
a(lp331
F355.0
aF-1002.75
aa(lp332
aF10.0
aa(lp333
g186
a(F953.0
F121.0
tp334
a(F981.0
F103.0
tp335
aa(lp336
g186
a(F953.0
F120.0
tp337
a(F981.0
F102.0
tp338
aa(lp339
g186
a(F981.0
F103.0
tp340
a(F1071.0
F169.0
tp341
aa(lp342
g186
a(F981.0
F102.0
tp343
a(F1071.0
F168.0
tp344
aa(lp345
g2
a(lp346
F1314.141436997221
aF-1016.8486313324644
aa(lp347
aF10.0
aa(lp348
g186
a(F1105.0
F107.0
tp349
a(F1222.0
F166.0
tp350
aa(lp351
g186
a(F1105.0
F106.0
tp352
a(F1222.0
F165.0
tp353
aa(lp354
g186
a(F1220.0
F165.0
tp355
a(F1332.0
F165.0
tp356
aa(lp357
g186
a(F1220.0
F164.0
tp358
a(F1332.0
F164.0
tp359
aa(lp360
g186
a(F1333.0
F164.0
tp361
a(F1513.0
F188.0
tp362
aa(lp363
g186
a(F1333.0
F163.0
tp364
a(F1513.0
F187.0
tp365
aa(lp366
g2
a(lp367
F452.16173682061554
aF-1013.7118729995054
aa(lp368
aF10.0
aa(lp369
g2
a(lp370
F410.04453852885524
aF-1016.3014687125153
aa(lp371
aF10.0
aa(lp372
g2
a(lp373
F458.9777030727322
aF-1015.6537095827501
aa(lp374
aF10.0
aa(lp375
g2
a(lp376
F452.95101736864029
aF-1013.1926195367968
aa(lp377
aF10.0
aa(lp378
g2
a(lp379
F369.17303222517239
aF-1005.5
aa(lp380
aF10.0
aa(lp381
g2
a(lp382
F349.27313976163822
aF-1032.75
aa(lp383
aF10.0
aa(lp384
S'Poly'
p385
a(lp386
F311.0
aF-1003.25
aa(lp387
(lp388
L0L
aL0L
aa(lp389
L0L
aL0L
aa(lp390
L0L
aL0L
aa(lp391
L0L
aL0L
aaaFnan
a(lp392
aa(lp393
g385
a(lp394
F311.0
aF-1006.25
aa(lp395
(lp396
L0L
aL0L
aa(lp397
L0L
aL0L
aa(lp398
L0L
aL0L
aa(lp399
L0L
aL0L
aaaFnan
a(lp400
aa(lp401
g186
a(F265.0
F-27.0
tp402
a(F274.0
F-56.0
tp403
aa(lp404
g186
a(F265.0
F-28.0
tp405
a(F274.0
F-57.0
tp406
aa(lp407
g186
a(F280.0
F-66.0
tp408
a(F364.0
F-57.0
tp409
aa(lp410
g186
a(F280.0
F-67.0
tp411
a(F364.0
F-58.0
tp412
aa(lp413
g186
a(F364.0
F-57.0
tp414
a(F360.0
F22.0
tp415
aa(lp416
g186
a(F364.0
F-58.0
tp417
a(F360.0
F21.0
tp418
aa(lp419
g186
a(F360.0
F22.0
tp420
a(F263.0
F-25.0
tp421
aa(lp422
g186
a(F360.0
F21.0
tp423
a(F263.0
F-26.0
tp424
aa(lp425
g2
a(lp426
F283.90684713315483
aF-55.624747407285341
aa(lp427
aF10.0
aa(lp428
g2
a(lp429
F323.51810293524397
aF-51.377758634392514
aa(lp430
aF10.0
aa(lp431
g2
a(lp432
F343.30513040880311
aF-49.260320630268147
aa(lp433
aF10.0
aa(lp434
g2
a(lp435
F303.73137423477772
aF-53.497986752974832
aa(lp436
aF10.0
aa(lp437
g2
a(lp438
F331.64004997364316
aF-33.13779296276136
aa(lp439
F50.0
aaF10.0
aa(lp440
g2
a(lp441
F2347.5696364654423
aF-1004.145811167489
aa(lp442
aF10.0
aa(lp443
g2
a(lp444
F1609.3695575778852
aF-1010.2899182809997
aa(lp445
aF10.0
aa(lp446
g186
a(F1512.0
F189.0
tp447
a(F1571.0
F220.0
tp448
aa(lp449
g186
a(F1512.0
F188.0
tp450
a(F1571.0
F219.0
tp451
aa(lp452
g186
a(F1571.0
F220.0
tp453
a(F1621.0
F329.0
tp454
aa(lp455
g186
a(F1571.0
F219.0
tp456
a(F1621.0
F328.0
tp457
aa(lp458
g186
a(F1621.0
F329.0
tp459
a(F1623.0
F414.0
tp460
aa(lp461
g186
a(F1621.0
F328.0
tp462
a(F1623.0
F413.0
tp463
aa(lp464
g186
a(F1623.0
F414.0
tp465
a(F1586.0
F453.0
tp466
aa(lp467
g186
a(F1623.0
F413.0
tp468
a(F1586.0
F452.0
tp469
aa(lp470
g186
a(F1586.0
F453.0
tp471
a(F1504.0
F463.0
tp472
aa(lp473
g186
a(F1586.0
F452.0
tp474
a(F1504.0
F462.0
tp475
aa(lp476
g186
a(F1504.0
F463.0
tp477
a(F1394.0
F446.0
tp478
aa(lp479
g186
a(F1504.0
F462.0
tp480
a(F1394.0
F445.0
tp481
aa(lp482
g186
a(F1394.0
F446.0
tp483
a(F1354.0
F390.0
tp484
aa(lp485
g186
a(F1394.0
F445.0
tp486
a(F1354.0
F389.0
tp487
aa(lp488
g186
a(F1354.0
F390.0
tp489
a(F1372.0
F335.0
tp490
aa(lp491
g186
a(F1354.0
F389.0
tp492
a(F1372.0
F334.0
tp493
aa(lp494
g186
a(F1372.0
F335.0
tp495
a(F1439.0
F297.0
tp496
aa(lp497
g186
a(F1372.0
F334.0
tp498
a(F1439.0
F296.0
tp499
aa(lp500
g186
a(F1364.0
F423.0
tp501
a(F1355.0
F360.0
tp502
aa(lp503
g186
a(F1364.0
F422.0
tp504
a(F1355.0
F359.0
tp505
aa(lp506
g186
a(F1356.0
F361.0
tp507
a(F1393.0
F319.0
tp508
aa(lp509
g186
a(F1356.0
F360.0
tp510
a(F1393.0
F318.0
tp511
aa(lp512
g186
a(F1363.0
F424.0
tp513
a(F1450.0
F465.0
tp514
aa(lp515
g186
a(F1363.0
F423.0
tp516
a(F1450.0
F464.0
tp517
aa(lp518
g186
a(F1450.0
F465.0
tp519
a(F1549.0
F462.0
tp520
aa(lp521
g186
a(F1450.0
F464.0
tp522
a(F1549.0
F461.0
tp523
aa(lp524
g186
a(F1549.0
F462.0
tp525
a(F1616.0
F435.0
tp526
aa(lp527
g186
a(F1549.0
F461.0
tp528
a(F1616.0
F434.0
tp529
aa(lp530
g186
a(F1616.0
F435.0
tp531
a(F1627.0
F370.0
tp532
aa(lp533
g186
a(F1616.0
F434.0
tp534
a(F1627.0
F369.0
tp535
aa(lp536
g186
a(F1627.0
F370.0
tp537
a(F1612.0
F301.0
tp538
aa(lp539
g186
a(F1627.0
F369.0
tp540
a(F1612.0
F300.0
tp541
aa(lp542
g186
a(F1581.0
F238.0
tp543
a(F1550.0
F202.0
tp544
aa(lp545
g186
a(F1581.0
F237.0
tp546
a(F1550.0
F201.0
tp547
aa(lp548
g186
a(F77.0
F385.0
tp549
a(F82.0
F464.0
tp550
aa(lp551
g186
a(F77.0
F384.0
tp552
a(F82.0
F463.0
tp553
aa(lp554
g186
a(F82.0
F464.0
tp555
a(F113.0
F435.0
tp556
aa(lp557
g186
a(F82.0
F463.0
tp558
a(F113.0
F434.0
tp559
aa(lp560
g186
a(F80.0
F465.0
tp561
a(F41.0
F443.0
tp562
aa(lp563
g186
a(F80.0
F464.0
tp564
a(F41.0
F442.0
tp565
aa(lp566
g186
a(F77.0
F366.0
tp567
a(F34.0
F365.0
tp568
aa(lp569
g186
a(F77.0
F365.0
tp570
a(F34.0
F364.0
tp571
aa(lp572
g186
a(F34.0
F365.0
tp573
a(F35.0
F333.0
tp574
aa(lp575
g186
a(F34.0
F364.0
tp576
a(F35.0
F332.0
tp577
aa(lp578
g186
a(F35.0
F333.0
tp579
a(F77.0
F339.0
tp580
aa(lp581
g186
a(F35.0
F332.0
tp582
a(F77.0
F338.0
tp583
aa(lp584
g186
a(F77.0
F339.0
tp585
a(F79.0
F308.0
tp586
aa(lp587
g186
a(F77.0
F338.0
tp588
a(F79.0
F307.0
tp589
aa(lp590
g186
a(F79.0
F308.0
tp591
a(F30.0
F305.0
tp592
aa(lp593
g186
a(F79.0
F307.0
tp594
a(F30.0
F304.0
tp595
aa(lp596
g186
a(F93.0
F336.0
tp597
a(F93.0
F315.0
tp598
aa(lp599
g186
a(F93.0
F335.0
tp600
a(F93.0
F314.0
tp601
aa(lp602
g186
a(F90.0
F358.0
tp603
a(F93.0
F356.0
tp604
aa(lp605
g186
a(F90.0
F357.0
tp606
a(F93.0
F355.0
tp607
aa(lp608
g186
a(F109.0
F339.0
tp609
a(F142.0
F338.0
tp610
aa(lp611
g186
a(F109.0
F338.0
tp612
a(F142.0
F337.0
tp613
aa(lp614
g186
a(F142.0
F338.0
tp615
a(F107.0
F304.0
tp616
aa(lp617
g186
a(F142.0
F337.0
tp618
a(F107.0
F303.0
tp619
aa(lp620
g186
a(F107.0
F304.0
tp621
a(F140.0
F305.0
tp622
aa(lp623
g186
a(F107.0
F303.0
tp624
a(F140.0
F304.0
tp625
aa(lp626
g186
a(F161.0
F316.0
tp627
a(F192.0
F322.0
tp628
aa(lp629
g186
a(F161.0
F315.0
tp630
a(F192.0
F321.0
tp631
aa(lp632
g186
a(F192.0
F322.0
tp633
a(F183.0
F336.0
tp634
aa(lp635
g186
a(F192.0
F321.0
tp636
a(F183.0
F335.0
tp637
aa(lp638
g186
a(F183.0
F336.0
tp639
a(F165.0
F342.0
tp640
aa(lp641
g186
a(F183.0
F335.0
tp642
a(F165.0
F341.0
tp643
aa(lp644
g186
a(F165.0
F342.0
tp645
a(F157.0
F332.0
tp646
aa(lp647
g186
a(F165.0
F341.0
tp648
a(F157.0
F331.0
tp649
aa(lp650
g186
a(F157.0
F332.0
tp651
a(F161.0
F317.0
tp652
aa(lp653
g186
a(F157.0
F331.0
tp654
a(F161.0
F316.0
tp655
aa(lp656
g186
a(F161.0
F317.0
tp657
a(F171.0
F298.0
tp658
aa(lp659
g186
a(F161.0
F316.0
tp660
a(F171.0
F297.0
tp661
aa(lp662
g186
a(F171.0
F298.0
tp663
a(F195.0
F296.0
tp664
aa(lp665
g186
a(F171.0
F297.0
tp666
a(F195.0
F295.0
tp667
aa(lp668
g186
a(F195.0
F296.0
tp669
a(F209.0
F301.0
tp670
aa(lp671
g186
a(F195.0
F295.0
tp672
a(F209.0
F300.0
tp673
aa(lp674
g186
a(F262.0
F350.0
tp675
a(F247.0
F338.0
tp676
aa(lp677
g186
a(F262.0
F349.0
tp678
a(F247.0
F337.0
tp679
aa(lp680
g186
a(F261.0
F347.0
tp681
a(F261.0
F313.0
tp682
aa(lp683
g186
a(F261.0
F346.0
tp684
a(F261.0
F312.0
tp685
aa(lp686
g186
a(F251.0
F311.0
tp687
a(F276.0
F311.0
tp688
aa(lp689
g186
a(F251.0
F310.0
tp690
a(F276.0
F310.0
tp691
aa(lp692
g186
a(F302.0
F348.0
tp693
a(F295.0
F309.0
tp694
aa(lp695
g186
a(F302.0
F347.0
tp696
a(F295.0
F308.0
tp697
aa(lp698
g186
a(F295.0
F309.0
tp699
a(F323.0
F309.0
tp700
aa(lp701
g186
a(F295.0
F308.0
tp702
a(F323.0
F308.0
tp703
aa(lp704
g186
a(F323.0
F309.0
tp705
a(F326.0
F350.0
tp706
aa(lp707
g186
a(F323.0
F308.0
tp708
a(F326.0
F349.0
tp709
aa(lp710
g186
a(F326.0
F350.0
tp711
a(F299.0
F350.0
tp712
aa(lp713
g186
a(F326.0
F349.0
tp714
a(F299.0
F349.0
tp715
aa(lp716
g186
a(F40.0
F280.0
tp717
a(F82.0
F280.0
tp718
aa(lp719
g186
a(F40.0
F279.0
tp720
a(F82.0
F279.0
tp721
aa(lp722
g186
a(F42.0
F278.0
tp723
a(F42.0
F245.0
tp724
aa(lp725
g186
a(F42.0
F277.0
tp726
a(F42.0
F244.0
tp727
aa(lp728
g186
a(F42.0
F245.0
tp729
a(F81.0
F245.0
tp730
aa(lp731
g186
a(F42.0
F244.0
tp732
a(F81.0
F244.0
tp733
aa(lp734
g186
a(F81.0
F245.0
tp735
a(F80.0
F214.0
tp736
aa(lp737
g186
a(F81.0
F244.0
tp738
a(F80.0
F213.0
tp739
aa(lp740
g186
a(F80.0
F214.0
tp741
a(F43.0
F217.0
tp742
aa(lp743
g186
a(F80.0
F213.0
tp744
a(F43.0
F216.0
tp745
aa(lp746
g186
a(F105.0
F247.0
tp747
a(F102.0
F187.0
tp748
aa(lp749
g186
a(F105.0
F246.0
tp750
a(F102.0
F186.0
tp751
aa(lp752
g186
a(F107.0
F250.0
tp753
a(F126.0
F249.0
tp754
aa(lp755
g186
a(F107.0
F249.0
tp756
a(F126.0
F248.0
tp757
aa(lp758
g186
a(F126.0
F249.0
tp759
a(F125.0
F221.0
tp760
aa(lp761
g186
a(F126.0
F248.0
tp762
a(F125.0
F220.0
tp763
aa(lp764
g186
a(F125.0
F221.0
tp765
a(F106.0
F221.0
tp766
aa(lp767
g186
a(F125.0
F220.0
tp768
a(F106.0
F220.0
tp769
aa(lp770
g186
a(F142.0
F240.0
tp771
a(F166.0
F239.0
tp772
aa(lp773
g186
a(F142.0
F239.0
tp774
a(F166.0
F238.0
tp775
aa(lp776
g186
a(F166.0
F239.0
tp777
a(F164.0
F252.0
tp778
aa(lp779
g186
a(F166.0
F238.0
tp780
a(F164.0
F251.0
tp781
aa(lp782
g186
a(F164.0
F252.0
tp783
a(F144.0
F253.0
tp784
aa(lp785
g186
a(F164.0
F251.0
tp786
a(F144.0
F252.0
tp787
aa(lp788
g186
a(F144.0
F253.0
tp789
a(F142.0
F245.0
tp790
aa(lp791
g186
a(F144.0
F252.0
tp792
a(F142.0
F244.0
tp793
aa(lp794
g186
a(F142.0
F245.0
tp795
a(F143.0
F217.0
tp796
aa(lp797
g186
a(F142.0
F244.0
tp798
a(F143.0
F216.0
tp799
aa(lp800
g186
a(F143.0
F217.0
tp801
a(F169.0
F217.0
tp802
aa(lp803
g186
a(F143.0
F216.0
tp804
a(F169.0
F216.0
tp805
aa(lp806
g186
a(F187.0
F242.0
tp807
a(F212.0
F242.0
tp808
aa(lp809
g186
a(F187.0
F241.0
tp810
a(F212.0
F241.0
tp811
aa(lp812
g186
a(F212.0
F242.0
tp813
a(F212.0
F262.0
tp814
aa(lp815
g186
a(F212.0
F241.0
tp816
a(F212.0
F261.0
tp817
aa(lp818
g186
a(F212.0
F262.0
tp819
a(F189.0
F261.0
tp820
aa(lp821
g186
a(F212.0
F261.0
tp822
a(F189.0
F260.0
tp823
aa(lp824
g186
a(F189.0
F261.0
tp825
a(F188.0
F221.0
tp826
aa(lp827
g186
a(F189.0
F260.0
tp828
a(F188.0
F220.0
tp829
aa(lp830
g186
a(F188.0
F221.0
tp831
a(F219.0
F219.0
tp832
aa(lp833
g186
a(F188.0
F220.0
tp834
a(F219.0
F218.0
tp835
aa(lp836
g186
a(F253.0
F277.0
tp837
a(F249.0
F221.0
tp838
aa(lp839
g186
a(F253.0
F276.0
tp840
a(F249.0
F220.0
tp841
aa(lp842
g186
a(F249.0
F244.0
tp843
a(F233.0
F243.0
tp844
aa(lp845
g186
a(F249.0
F243.0
tp846
a(F233.0
F242.0
tp847
aa(lp848
g186
a(F233.0
F243.0
tp849
a(F233.0
F221.0
tp850
aa(lp851
g186
a(F233.0
F242.0
tp852
a(F233.0
F220.0
tp853
aa(lp854
g186
a(F233.0
F221.0
tp855
a(F252.0
F220.0
tp856
aa(lp857
g186
a(F233.0
F220.0
tp858
a(F252.0
F219.0
tp859
aa(lp860
g186
a(F284.0
F278.0
tp861
a(F280.0
F248.0
tp862
aa(lp863
g186
a(F284.0
F277.0
tp864
a(F280.0
F247.0
tp865
aa(lp866
g186
a(F280.0
F248.0
tp867
a(F303.0
F245.0
tp868
aa(lp869
g186
a(F280.0
F247.0
tp870
a(F303.0
F244.0
tp871
aa(lp872
g186
a(F303.0
F245.0
tp873
a(F302.0
F220.0
tp874
aa(lp875
g186
a(F303.0
F244.0
tp876
a(F302.0
F219.0
tp877
aa(lp878
g186
a(F302.0
F220.0
tp879
a(F279.0
F220.0
tp880
aa(lp881
g186
a(F302.0
F219.0
tp882
a(F279.0
F219.0
tp883
aa(lp884
g186
a(F282.0
F277.0
tp885
a(F307.0
F274.0
tp886
aa(lp887
g186
a(F282.0
F276.0
tp888
a(F307.0
F273.0
tp889
aa(lp890
g186
a(F337.0
F269.0
tp891
a(F330.0
F212.0
tp892
aa(lp893
g186
a(F337.0
F268.0
tp894
a(F330.0
F211.0
tp895
aa(lp896
g186
a(F330.0
F212.0
tp897
a(F364.0
F214.0
tp898
aa(lp899
g186
a(F330.0
F211.0
tp900
a(F364.0
F213.0
tp901
aa(lp902
g186
a(F364.0
F214.0
tp903
a(F365.0
F270.0
tp904
aa(lp905
g186
a(F364.0
F213.0
tp906
a(F365.0
F269.0
tp907
aa(lp908
g186
a(F365.0
F270.0
tp909
a(F335.0
F269.0
tp910
aa(lp911
g186
a(F365.0
F269.0
tp912
a(F335.0
F268.0
tp913
aa.