(lp0
(lp1
S'Circle'
p2
a(lp3
F997.99334895222307
aF-1015.4365946635253
aa(lp4
aF10.0
aa(lp5
g2
a(lp6
F997.99334895222307
aF-1015.4365946635253
aa(lp7
aF10.0
aa(lp8
S'Line'
p9
a(F15.0
F-50.0
tp10
a(F1254.0
F-50.0
tp11
aa.