(lp0
(lp1
S'Poly'
p2
a(lp3
F461.25146752154978
aF532.24463899905925
aa(lp4
(lp5
I624
aI515
aa(lp6
I412
aI375
aa(lp7
I297
aI548
aa(lp8
I509
aI689
aaaF44908.333333333336
a(lp9
aa(lp10
g2
a(lp11
F3570.9467554601979
aF-1006.8176751064966
aa(lp12
(lp13
I3701
aI-1058
aa(lp14
I3618
aI-1138
aa(lp15
I3440
aI-955
aa(lp16
I3523
aI-875
aaaF32604.166666666668
a(lp17
aa(lp18
g2
a(lp19
F582.31687014738964
aF72.701852073101449
aa(lp20
(lp21
I442
aI-55
aa(lp22
I435
aI-46
aa(lp23
I722
aI200
aa(lp24
I729
aI192
aaaF59900.833333333336
a(lp25
aa(lp26
S'Circle'
p27
a(lp28
F2064.5870209274617
aF-1024.1045948088879
aa(lp29
aF10.0
aa(lp30
g27
a(lp31
F2179.8696318652383
aF-1004.5145048943946
aa(lp32
aF10.0
aa(lp33
g27
a(lp34
F-3960.3699348543728
aF-1015.2656353439356
aa(lp35
aF10.0
aa(lp36
g27
a(lp37
F-665.15403862415531
aF-1043.1083738212478
aa(lp38
aF10.0
aa(lp39
g27
a(lp40
F928.96684318402561
aF-1001.2444142227688
aa(lp41
aF10.0
aa(lp42
g27
a(lp43
F7242.876603584381
aF-1017.2506154675436
aa(lp44
aF10.0
aa(lp45
g27
a(lp46
F928.83064784119665
aF-1000.9546153388679
aa(lp47
aF10.0
aa(lp48
g27
a(lp49
F928.76650053449043
aF-1001.4898739160697
aa(lp50
aF10.0
aa(lp51
g27
a(lp52
F919.12189421017854
aF-1010.2229912306506
aa(lp53
aF10.0
aa(lp54
g27
a(lp55
F936.3477650878292
aF-1007.3784190480234
aa(lp56
aF10.0
aa(lp57
g27
a(lp58
F932.00755525425529
aF-1021.4019425685854
aa(lp59
aF10.0
aa(lp60
g27
a(lp61
F929.40624138612327
aF-1001.4726728891052
aa(lp62
aF10.0
aa(lp63
g27
a(lp64
F936.93351715317215
aF-1010.719861396844
aa(lp65
aF10.0
aa(lp66
g27
a(lp67
F2672.6487105191127
aF-1004.9237435901251
aa(lp68
aF10.0
aa(lp69
g27
a(lp70
F6754.0750679937155
aF-1000.9860779871207
aa(lp71
aF10.0
aa(lp72
g27
a(lp73
F12823.99913507593
aF-1018.2180077226957
aa(lp74
aF10.0
aa(lp75
g27
a(lp76
F6525.4914173559373
aF-1004.2801281866439
aa(lp77
aF10.0
aa(lp78
g27
a(lp79
F6088.9563799823927
aF-1033.5064937701027
aa(lp80
aF10.0
aa(lp81
g27
a(lp82
F6218.249311207026
aF-1024.1151296172661
aa(lp83
aF10.0
aa(lp84
g27
a(lp85
F10682.691568649485
aF-1020.9920611593745
aa(lp86
aF10.0
aa(lp87
g27
a(lp88
F7612.4696520866873
aF-1036.0863205425846
aa(lp89
aF10.0
aa(lp90
g27
a(lp91
F5347.2986731423634
aF-1052.8008081196112
aa(lp92
aF10.0
aa(lp93
g27
a(lp94
F4665.1368316465578
aF-1038.3561457378419
aa(lp95
aF10.0
aa(lp96
g27
a(lp97
F3242.5076304599415
aF-1036.7677981357717
aa(lp98
aF10.0
aa(lp99
g27
a(lp100
F4146.5707873642032
aF-1017.7341313081245
aa(lp101
aF10.0
aa(lp102
g27
a(lp103
F6243.5052835958932
aF-1018.4024025056846
aa(lp104
aF10.0
aa(lp105
g27
a(lp106
F5441.9800824111062
aF-1015.3853561908812
aa(lp107
aF10.0
aa(lp108
g27
a(lp109
F2939.570475301578
aF-1017.7092927503413
aa(lp110
aF10.0
aa(lp111
g27
a(lp112
F-3685.4889559327344
aF-1018.419072119658
aa(lp113
aF10.0
aa(lp114
g27
a(lp115
F7292.0731006815413
aF-1033.8549462305757
aa(lp116
aF10.0
aa(lp117
g27
a(lp118
F8401.2065729458591
aF-1032.9549113273672
aa(lp119
aF10.0
aa(lp120
g27
a(lp121
F15180.267255583487
aF-1043.9032165926694
aa(lp122
aF10.0
aa(lp123
g27
a(lp124
F2618.0751608953233
aF-1009.8590146851731
aa(lp125
aF10.0
aa(lp126
g27
a(lp127
F-1155.3541513056887
aF-1006.3109112029505
aa(lp128
aF10.0
aa(lp129
g27
a(lp130
F12844.010630170638
aF-1005.1032053268714
aa(lp131
aF10.0
aa(lp132
g27
a(lp133
F-6709.9088845980223
aF-1014.6489016371225
aa(lp134
aF10.0
aa(lp135
g27
a(lp136
F-9561.1748589220279
aF-1001.9852665994747
aa(lp137
aF10.0
aa(lp138
g27
a(lp139
F8870.4757180879005
aF-1018.7070952390054
aa(lp140
aF10.0
aa(lp141
g27
a(lp142
F7554.6886394745225
aF-1006.0976328836092
aa(lp143
aF10.0
aa(lp144
g2
a(lp145
F798.42149043670054
aF15.947508984201143
aa(lp146
(lp147
I635
aI293
aa(lp148
I690
aI319
aa(lp149
I961
aI-262
aa(lp150
I906
aI-287
aaaF173285.41666666666
a(lp151
F7.0
aaa(lp152
g27
a(lp153
F-707.32695199614795
aF-1026.1019304146873
aa(lp154
aF10.0
aa(lp155
g27
a(lp156
F4397.828124240049
aF-1030.2529613047584
aa(lp157
aF10.0
aa(lp158
g27
a(lp159
F6198.5264926462751
aF-1038.5815321675163
aa(lp160
aF10.0
aa(lp161
g27
a(lp162
F7109.7713315293331
aF-1026.4996339441477
aa(lp163
aF10.0
aa(lp164
g27
a(lp165
F3091.8984214088937
aF-1002.314550779917
aa(lp166
aF10.0
aa(lp167
S'Line'
p168
a(F4.0
F443.0
tp169
a(F64.0
F433.0
tp170
aa(lp171
g168
a(F4.0
F442.0
tp172
a(F64.0
F432.0
tp173
aa(lp174
g168
a(F64.0
F433.0
tp175
a(F107.0
F414.0
tp176
aa(lp177
g168
a(F64.0
F432.0
tp178
a(F107.0
F413.0
tp179
aa(lp180
g168
a(F107.0
F414.0
tp181
a(F164.0
F381.0
tp182
aa(lp183
g168
a(F107.0
F413.0
tp184
a(F164.0
F380.0
tp185
aa(lp186
g168
a(F164.0
F381.0
tp187
a(F350.0
F243.0
tp188
aa(lp189
g168
a(F164.0
F380.0
tp190
a(F350.0
F242.0
tp191
aa(lp192
g168
a(F350.0
F243.0
tp193
a(F422.0
F208.0
tp194
aa(lp195
g168
a(F350.0
F242.0
tp196
a(F422.0
F207.0
tp197
aa(lp198
g168
a(F422.0
F208.0
tp199
a(F450.0
F198.0
tp200
aa(lp201
g168
a(F422.0
F207.0
tp202
a(F450.0
F197.0
tp203
aa(lp204
g27
a(lp205
F6796.6706217810706
aF-1012.8019396397706
aa(lp206
aF10.0
aa(lp207
g27
a(lp208
F6261.1965095016985
aF-1020.1336160469793
aa(lp209
aF10.0
aa(lp210
g27
a(lp211
F3491.8504640631054
aF-1012.458379134115
aa(lp212
aF10.0
aa(lp213
g27
a(lp214
F3677.5461402694546
aF-1001.3891537890197
aa(lp215
aF10.0
aa(lp216
g27
a(lp217
F8227.0756101949282
aF-1007.6608082518125
aa(lp218
aF10.0
aa(lp219
g27
a(lp220
F5870.2260839044038
aF-1017.3107273189175
aa(lp221
aF10.0
aa(lp222
g27
a(lp223
F3532.4104986247921
aF-1019.8305175046322
aa(lp224
aF10.0
aa(lp225
g27
a(lp226
F3838.2442742436961
aF-1013.4713441964593
aa(lp227
aF10.0
aa.