(lp0
(lp1
S'Circle'
p2
a(lp3
F1353.9496533038784
aF-1005.1188891141803
aa(lp4
aF10.0
aa(lp5
g2
a(lp6
F1353.9496533038784
aF-1005.1188891141803
aa(lp7
aF10.0
aa(lp8
g2
a(lp9
F756.44707069033916
aF-1009.3768334220844
aa(lp10
aF10.0
aa(lp11
g2
a(lp12
F1265.5079089879887
aF-1023.3451059682798
aa(lp13
aF10.0
aa(lp14
g2
a(lp15
F844.03325775393398
aF-1001.374764258548
aa(lp16
aF10.0
aa(lp17
g2
a(lp18
F683.91410070292375
aF-1020.3274617103789
aa(lp19
aF10.0
aa(lp20
g2
a(lp21
F765.16585423399863
aF-1009.7510187005912
aa(lp22
aF10.0
aa(lp23
g2
a(lp24
F610.65735426442143
aF-1023.6067427643287
aa(lp25
aF10.0
aa(lp26
g2
a(lp27
F610.6980888489885
aF-1023.4626867444418
aa(lp28
aF10.0
aa(lp29
g2
a(lp30
F579.93148802603321
aF-1008.5555474744692
aa(lp31
aF10.0
aa(lp32
g2
a(lp33
F610.70318902948338
aF-1023.4406956683105
aa(lp34
aF10.0
aa(lp35
g2
a(lp36
F610.70318902948338
aF-1023.4406956683105
aa(lp37
aF10.0
aa(lp38
g2
a(lp39
F610.70318902948338
aF-1023.4406956683105
aa(lp40
aF10.0
aa(lp41
g2
a(lp42
F770.44863863542798
aF-1003.3088280091889
aa(lp43
aF10.0
aa(lp44
g2
a(lp45
F770.44863863542798
aF-1003.3088280091889
aa(lp46
aF10.0
aa(lp47
g2
a(lp48
F770.44863863542798
aF-1003.3088280091889
aa(lp49
aF10.0
aa(lp50
g2
a(lp51
F770.44863863542798
aF-1003.3088280091889
aa(lp52
aF10.0
aa(lp53
g2
a(lp54
F770.44863863542798
aF-1003.3088280091889
aa(lp55
aF10.0
aa(lp56
g2
a(lp57
F770.44863863542798
aF-1003.3088280091889
aa(lp58
aF10.0
aa(lp59
g2
a(lp60
F770.44863863542798
aF-1003.3088280091889
aa(lp61
aF10.0
aa(lp62
g2
a(lp63
F770.44863863542798
aF-1003.3088280091889
aa(lp64
aF10.0
aa(lp65
g2
a(lp66
F770.44863863542798
aF-1003.3088280091889
aa(lp67
aF10.0
aa(lp68
g2
a(lp69
F770.44863863542798
aF-1003.3088280091889
aa(lp70
aF10.0
aa(lp71
g2
a(lp72
F770.44863863542798
aF-1003.3088280091889
aa(lp73
aF10.0
aa(lp74
g2
a(lp75
F770.44863863542798
aF-1003.3088280091889
aa(lp76
aF10.0
aa(lp77
g2
a(lp78
F770.44863863542798
aF-1003.3088280091889
aa(lp79
aF10.0
aa(lp80
g2
a(lp81
F770.44863863542798
aF-1003.3088280091889
aa(lp82
aF10.0
aa(lp83
g2
a(lp84
F770.44863863542798
aF-1003.3088280091889
aa(lp85
aF10.0
aa(lp86
g2
a(lp87
F770.44863863542798
aF-1003.3088280091889
aa(lp88
aF10.0
aa(lp89
g2
a(lp90
F770.44863863542798
aF-1003.3088280091889
aa(lp91
aF10.0
aa(lp92
g2
a(lp93
F770.44863863542798
aF-1003.3088280091889
aa(lp94
aF10.0
aa(lp95
g2
a(lp96
F770.44863863542798
aF-1003.3088280091889
aa(lp97
aF10.0
aa(lp98
g2
a(lp99
F770.44863863542798
aF-1003.3088280091889
aa(lp100
aF10.0
aa(lp101
g2
a(lp102
F770.44863863542798
aF-1003.3088280091889
aa(lp103
aF10.0
aa(lp104
g2
a(lp105
F770.44863863542798
aF-1003.3088280091889
aa(lp106
aF10.0
aa(lp107
g2
a(lp108
F770.44863863542798
aF-1003.3088280091889
aa(lp109
aF10.0
aa(lp110
g2
a(lp111
F770.44863863542798
aF-1003.3088280091889
aa(lp112
aF10.0
aa(lp113
g2
a(lp114
F770.44863863542798
aF-1003.3088280091889
aa(lp115
aF10.0
aa(lp116
g2
a(lp117
F770.44863863542798
aF-1003.3088280091889
aa(lp118
aF10.0
aa(lp119
g2
a(lp120
F770.44863863542798
aF-1003.3088280091889
aa(lp121
aF10.0
aa(lp122
g2
a(lp123
F770.76727730465211
aF-1003.0994460246477
aa(lp124
aF10.0
aa(lp125
g2
a(lp126
F770.76816037614776
aF-1003.0988558054121
aa(lp127
aF10.0
aa(lp128
g2
a(lp129
F769.99542840924175
aF-1003.5942850408387
aa(lp130
aF10.0
aa(lp131
g2
a(lp132
F770.89370432810381
aF-1003.0143870739845
aa(lp133
aF10.0
aa(lp134
g2
a(lp135
F770.23058716115065
aF-1003.4479838544542
aa(lp136
aF10.0
aa(lp137
g2
a(lp138
F770.70143470577443
aF-1003.1432985908515
aa(lp139
aF10.0
aa(lp140
g2
a(lp141
F769.98585586718866
aF-1003.600157357891
aa(lp142
aF10.0
aa(lp143
g2
a(lp144
F793.355084240878
aF-1021.2049232842485
aa(lp145
aF10.0
aa(lp146
g2
a(lp147
F770.83548505655676
aF-1003.0143142614722
aa(lp148
aF10.0
aa(lp149
g2
a(lp150
F771.31369177175975
aF-1002.6215781796287
aa(lp151
aF10.0
aa(lp152
g2
a(lp153
F769.77245586604909
aF-1003.6974417913168
aa(lp154
aF10.0
aa(lp155
g2
a(lp156
F770.82052917419821
aF-1003.0236686756331
aa(lp157
aF10.0
aa(lp158
g2
a(lp159
F770.65135855400479
aF-1003.1277552235771
aa(lp160
aF10.0
aa(lp161
g2
a(lp162
F770.61227588217935
aF-1003.1504381230694
aa(lp163
aF10.0
aa(lp164
g2
a(lp165
F770.09080910680234
aF-1003.5115402718785
aa(lp166
aF10.0
aa(lp167
g2
a(lp168
F770.88721374342401
aF-1002.981774627545
aa(lp169
aF10.0
aa(lp170
g2
a(lp171
F770.66738154254153
aF-1003.1180357695401
aa(lp172
aF10.0
aa(lp173
g2
a(lp174
F770.61593060657515
aF-1003.1483625672084
aa(lp175
aF10.0
aa(lp176
g2
a(lp177
F770.09185105814379
aF-1003.5109290284905
aa(lp178
aF10.0
aa(lp179
g2
a(lp180
F769.99480972188508
aF-1003.5946647740992
aa(lp181
aF10.0
aa(lp182
g2
a(lp183
F771.21397557004343
aF-1002.7697094828977
aa(lp184
aF10.0
aa(lp185
g2
a(lp186
F770.74051503992052
aF-1003.0732994939057
aa(lp187
aF10.0
aa(lp188
g2
a(lp189
F770.12515739743765
aF-1003.491336681862
aa(lp190
aF10.0
aa(lp191
g2
a(lp192
F770.89437503809711
aF-1002.9772474384292
aa(lp193
aF10.0
aa(lp194
g2
a(lp195
F771.32442407544863
aF-1002.6157707607983
aa(lp196
aF10.0
aa(lp197
g2
a(lp198
F769.77877260229502
aF-1003.691857821947
aa(lp199
aF10.0
aa(lp200
g2
a(lp201
F770.32764281269829
aF-1003.37002008893
aa(lp202
aF10.0
aa(lp203
g2
a(lp204
F770.93610195772806
aF-1002.9507615856652
aa(lp205
aF10.0
aa(lp206
g2
a(lp207
F770.67904881176969
aF-1003.1109397698717
aa(lp208
aF10.0
aa(lp209
g2
a(lp210
F769.65042262605573
aF-1003.8289846594571
aa(lp211
aF10.0
aa(lp212
g2
a(lp213
F771.16025564181871
aF-1002.8053470834114
aa(lp214
aF10.0
aa(lp215
g2
a(lp216
F770.2300545059245
aF-1003.4289572064745
aa(lp217
aF10.0
aa(lp218
g2
a(lp219
F770.91609301774281
aF-1002.9634848611774
aa(lp220
aF10.0
aa(lp221
g2
a(lp222
F770.17051551355519
aF-1003.4644883005234
aa(lp223
aF10.0
aa(lp224
g2
a(lp225
F736.99197434970654
aF-1020.0806979956494
aa(lp226
aF10.0
aa(lp227
g2
a(lp228
F770.39469562570116
aF-1003.269988676813
aa(lp229
aF10.0
aa(lp230
g2
a(lp231
F770.0271804966975
aF-1003.5486721870506
aa(lp232
aF10.0
aa(lp233
g2
a(lp234
F737.02926722176517
aF-1020.0492204658651
aa(lp235
aF10.0
aa(lp236
g2
a(lp237
F771.10411127760949
aF-1002.7256837472405
aa(lp238
aF10.0
aa(lp239
g2
a(lp240
F771.02649508213233
aF-1002.7518519036778
aa(lp241
aF10.0
aa(lp242
g2
a(lp243
F771.00849630288963
aF-1002.755491842793
aa(lp244
aF10.0
aa(lp245
g2
a(lp246
F746.6533042696077
aF-1022.2107038746916
aa(lp247
aF10.0
aa(lp248
g2
a(lp249
F765.25331789170934
aF-1024.256828534679
aa(lp250
aF10.0
aa(lp251
g2
a(lp252
F756.02560471628465
aF-1022.0435978905329
aa(lp253
aF10.0
aa(lp254
g2
a(lp255
F747.71117318768256
aF-1012.0334538289591
aa(lp256
aF10.0
aa(lp257
g2
a(lp258
F703.18950073850795
aF-1016.1067970945139
aa(lp259
aF10.0
aa(lp260
g2
a(lp261
F751.02108023774576
aF-1002.5674924365683
aa(lp262
aF10.0
aa(lp263
g2
a(lp264
F742.14012242661136
aF-1018.0750746989146
aa(lp265
aF10.0
aa(lp266
g2
a(lp267
F701.77258372576705
aF-1012.0664521993441
aa(lp268
aF10.0
aa(lp269
g2
a(lp270
F733.12367425166667
aF-1008.119617353936
aa(lp271
aF10.0
aa(lp272
g2
a(lp273
F741.00316979622858
aF-1002.3512146527785
aa(lp274
aF10.0
aa(lp275
g2
a(lp276
F730.25028886235521
aF-1005.4701603307255
aa(lp277
aF10.0
aa(lp278
g2
a(lp279
F665.37283167317923
aF-1017.1012343151693
aa(lp280
aF10.0
aa(lp281
g2
a(lp282
F732.74221941239603
aF-1001.7770022551202
aa(lp283
aF10.0
aa(lp284
g2
a(lp285
F718.93561951468564
aF-1012.2166425287543
aa(lp286
aF10.0
aa(lp287
g2
a(lp288
F739.1322476860912
aF-1015.8476617798119
aa(lp289
aF10.0
aa(lp290
g2
a(lp291
F729.52272757739536
aF-1003.5838975893415
aa(lp292
aF10.0
aa(lp293
g2
a(lp294
F669.82388346742459
aF-1008.9058486968909
aa(lp295
aF10.0
aa(lp296
g2
a(lp297
F744.54501852421822
aF-1021.7529181663425
aa(lp298
aF10.0
aa(lp299
g2
a(lp300
F762.34197609697867
aF-1001.0759821672098
aa(lp301
aF10.0
aa(lp302
g2
a(lp303
F770.42757417136693
aF-1003.2524595149721
aa(lp304
aF10.0
aa(lp305
g2
a(lp306
F771.23518509396217
aF-1002.6628122565833
aa(lp307
aF10.0
aa(lp308
g2
a(lp309
F770.31152430449742
aF-1003.3133892534505
aa(lp310
aF10.0
aa(lp311
g2
a(lp312
F770.526610113115
aF-1003.1984748811171
aa(lp313
aF10.0
aa(lp314
g2
a(lp315
F771.25520070173116
aF-1002.6525196241806
aa(lp316
aF10.0
aa(lp317
g2
a(lp318
F771.05584958842735
aF-1002.7445326740848
aa(lp319
aF10.0
aa(lp320
g2
a(lp321
F771.4779963560261
aF-1002.4382084733502
aa(lp322
aF10.0
aa(lp323
g2
a(lp324
F762.98721310177098
aF-1015.9194317585265
aa(lp325
aF10.0
aa(lp326
g2
a(lp327
F718.24411123529478
aF-1018.3892031150602
aa(lp328
aF10.0
aa(lp329
g2
a(lp330
F739.13248026110716
aF-1004.3952486917254
aa(lp331
aF10.0
aa(lp332
g2
a(lp333
F689.74408070368816
aF-1024.4584312369852
aa(lp334
aF10.0
aa(lp335
g2
a(lp336
F743.03366782038313
aF-1002.2807482721237
aa(lp337
aF10.0
aa(lp338
g2
a(lp339
F724.95440682338301
aF-1022.5883816796049
aa(lp340
aF10.0
aa(lp341
g2
a(lp342
F770.96038063966989
aF-1002.7606890576694
aa(lp343
aF10.0
aa(lp344
g2
a(lp345
F743.91754597495822
aF-1009.1257797632541
aa(lp346
aF10.0
aa(lp347
g2
a(lp348
F770.89339928232175
aF-1002.7353700001187
aa(lp349
aF10.0
aa(lp350
g2
a(lp351
F699.96612355850345
aF-1011.2472702966486
aa(lp352
aF10.0
aa(lp353
g2
a(lp354
F697.00595989242959
aF-1007.0588862915877
aa(lp355
aF10.0
aa(lp356
g2
a(lp357
F721.91193832187048
aF-1017.8358445118319
aa(lp358
aF10.0
aa(lp359
g2
a(lp360
F86.92340456191117
aF-1003.9731119392545
aa(lp361
aF10.0
aa(lp362
g2
a(lp363
F914.58137522334744
aF-1011.1369358145403
aa(lp364
aF10.0
aa(lp365
g2
a(lp366
F879.44376720466641
aF-1004.5860089640554
aa(lp367
aF10.0
aa(lp368
g2
a(lp369
F626.65372312694183
aF-1002.4268832030732
aa(lp370
aF10.0
aa(lp371
g2
a(lp372
F543.04297444487838
aF-1020.3933495669592
aa(lp373
aF10.0
aa(lp374
g2
a(lp375
F821.88904551198982
aF-1028.4777927037724
aa(lp376
aF10.0
aa(lp377
g2
a(lp378
F561.82095478739552
aF-1000.1585922351508
aa(lp379
aF10.0
aa(lp380
g2
a(lp381
F440.80680944518753
aF-1000.6104079962086
aa(lp382
aF10.0
aa(lp383
g2
a(lp384
F620.67888903068513
aF-1017.0182804743489
aa(lp385
aF10.0
aa(lp386
g2
a(lp387
F796.24026802827132
aF-1000.6727631787038
aa(lp388
aF10.0
aa(lp389
g2
a(lp390
F532.96924756282363
aF-1021.2636625633698
aa(lp391
aF10.0
aa(lp392
g2
a(lp393
F929.36644815778436
aF-1001.2512289161598
aa(lp394
aF10.0
aa(lp395
g2
a(lp396
F880.8208068223488
aF-1039.4949370596994
aa(lp397
aF10.0
aa(lp398
g2
a(lp399
F832.52647374267031
aF-1004.0515311777017
aa(lp400
aF10.0
aa(lp401
g2
a(lp402
F595.36383467376629
aF-1017.8754458887825
aa(lp403
aF10.0
aa(lp404
g2
a(lp405
F620.83429029082129
aF-1013.347484156108
aa(lp406
aF10.0
aa(lp407
g2
a(lp408
F616.32662126552805
aF-1014.8492109553971
aa(lp409
aF10.0
aa(lp410
g2
a(lp411
F615.65821580568843
aF-1015.0818913865564
aa(lp412
aF10.0
aa(lp413
g2
a(lp414
F615.56789099829143
aF-1015.1135452095801
aa(lp415
aF10.0
aa(lp416
g2
a(lp417
F620.36657250177836
aF-1013.2908767876878
aa(lp418
aF10.0
aa(lp419
g2
a(lp420
F619.39538806753808
aF-1013.8089974576029
aa(lp421
aF10.0
aa(lp422
g2
a(lp423
F700.05986860465111
aF-1009.2996837976126
aa(lp424
aF10.0
aa(lp425
g2
a(lp426
F613.67435092081178
aF-1015.7886978202413
aa(lp427
aF10.0
aa(lp428
g2
a(lp429
F620.09816529949057
aF-1013.4237300086423
aa(lp430
aF10.0
aa(lp431
g2
a(lp432
F727.7131660735663
aF-1016.8704959453237
aa(lp433
aF10.0
aa(lp434
g2
a(lp435
F621.01178271739604
aF-1013.5534953157637
aa(lp436
aF10.0
aa(lp437
g2
a(lp438
F621.08568681885254
aF-1013.1103253095876
aa(lp439
aF10.0
aa(lp440
g2
a(lp441
F618.29377199614203
aF-1013.5310011810062
aa(lp442
aF10.0
aa(lp443
g2
a(lp444
F618.16168525438786
aF-1013.4103239742428
aa(lp445
aF10.0
aa(lp446
g2
a(lp447
F739.13405430222576
aF-1019.713462778965
aa(lp448
aF10.0
aa(lp449
g2
a(lp450
F750.55809653032713
aF-1011.6975646097058
aa(lp451
aF10.0
aa(lp452
g2
a(lp453
F750.14290777187307
aF-1014.2492049645538
aa(lp454
aF10.0
aa(lp455
g2
a(lp456
F643.47069441487338
aF-1016.9786447101028
aa(lp457
aF10.0
aa(lp458
g2
a(lp459
F621.26089254211342
aF-1012.0384867104428
aa(lp460
aF10.0
aa(lp461
g2
a(lp462
F581.9524492693705
aF-1021.4906352135821
aa(lp463
aF10.0
aa(lp464
g2
a(lp465
F562.26798727239532
aF-1020.6326960962034
aa(lp466
aF10.0
aa(lp467
g2
a(lp468
F530.95599152948785
aF-1014.1026007529233
aa(lp469
aF10.0
aa(lp470
g2
a(lp471
F423.62412125496962
aF-1017.955441917483
aa(lp472
aF10.0
aa(lp473
g2
a(lp474
F424.2562583760253
aF-1009.0153857946581
aa(lp475
aF10.0
aa(lp476
g2
a(lp477
F436.87362865476285
aF-1007.6895277527719
aa(lp478
aF10.0
aa(lp479
g2
a(lp480
F480.14362448437447
aF-1008.4937326984522
aa(lp481
aF10.0
aa(lp482
g2
a(lp483
F435.13695037738825
aF-1019.5616738483091
aa(lp484
aF10.0
aa(lp485
g2
a(lp486
F431.51021327454629
aF-1018.029779249222
aa(lp487
aF10.0
aa(lp488
g2
a(lp489
F436.08975434421234
aF-1011.4264619508648
aa(lp490
aF10.0
aa(lp491
g2
a(lp492
F435.29219214754841
aF-1023.3358731245611
aa(lp493
aF10.0
aa(lp494
g2
a(lp495
F487.7066681003011
aF-1012.175629751908
aa(lp496
aF10.0
aa(lp497
g2
a(lp498
F430.45904496966341
aF-1024.0359062662583
aa(lp499
aF10.0
aa(lp500
g2
a(lp501
F450.61927275873052
aF-1016.5073312230845
aa(lp502
aF10.0
aa(lp503
g2
a(lp504
F501.27273843698833
aF-1017.0576084999693
aa(lp505
aF10.0
aa(lp506
g2
a(lp507
F457.5528190104252
aF-1019.8693021919626
aa(lp508
aF10.0
aa(lp509
g2
a(lp510
F434.17883615117199
aF-1015.2918151124843
aa(lp511
aF10.0
aa(lp512
g2
a(lp513
F547.34408896660943
aF-1019.9630259989735
aa(lp514
aF10.0
aa(lp515
g2
a(lp516
F499.40672548586122
aF-1011.9029943891751
aa(lp517
aF10.0
aa(lp518
g2
a(lp519
F664.81356616358892
aF-1019.7708561304094
aa(lp520
aF10.0
aa(lp521
g2
a(lp522
F529.58639369291382
aF-1013.8657624440906
aa(lp523
aF10.0
aa(lp524
g2
a(lp525
F544.28211736110813
aF-1016.4054873468972
aa(lp526
aF10.0
aa(lp527
g2
a(lp528
F535.52270176239176
aF-1013.026015077536
aa(lp529
aF10.0
aa(lp530
g2
a(lp531
F466.38467283467992
aF-1010.3720224203702
aa(lp532
aF10.0
aa(lp533
g2
a(lp534
F532.5501614137728
aF-1005.0249860362588
aa(lp535
aF10.0
aa(lp536
g2
a(lp537
F663.48469713124769
aF-1022.3912968180244
aa(lp538
aF10.0
aa(lp539
g2
a(lp540
F586.01827769443435
aF-1013.7758250699725
aa(lp541
aF10.0
aa(lp542
g2
a(lp543
F500.13462165929525
aF-1012.2324536815814
aa(lp544
aF10.0
aa(lp545
g2
a(lp546
F458.58748607599932
aF-1021.6800663786385
aa(lp547
aF10.0
aa(lp548
g2
a(lp549
F540.02170351536449
aF-1022.6478507271557
aa(lp550
aF10.0
aa(lp551
g2
a(lp552
F474.08008454469689
aF-1006.341287886724
aa(lp553
aF10.0
aa(lp554
g2
a(lp555
F439.70303965137606
aF-1013.7049511079811
aa(lp556
aF10.0
aa(lp557
g2
a(lp558
F558.18499444637155
aF-1008.4742839343794
aa(lp559
aF10.0
aa(lp560
g2
a(lp561
F582.5423477398258
aF-1010.2644263646549
aa(lp562
aF10.0
aa(lp563
g2
a(lp564
F562.21331098437861
aF-1005.839083797769
aa(lp565
aF10.0
aa(lp566
g2
a(lp567
F472.68524603063793
aF-1022.4996601596996
aa(lp568
aF10.0
aa(lp569
g2
a(lp570
F580.3115298733178
aF-1022.0953590093662
aa(lp571
aF10.0
aa(lp572
g2
a(lp573
F451.49520091968685
aF-1022.3969103223856
aa(lp574
aF10.0
aa(lp575
g2
a(lp576
F476.88358470612741
aF-1002.2497133202061
aa(lp577
aF10.0
aa(lp578
g2
a(lp579
F554.13059832635247
aF-1013.2041249243658
aa(lp580
aF10.0
aa(lp581
g2
a(lp582
F469.25480668475257
aF-1011.3303230710044
aa(lp583
aF10.0
aa(lp584
g2
a(lp585
F507.42251029007519
aF-1010.796601049382
aa(lp586
aF10.0
aa(lp587
g2
a(lp588
F482.89131902342706
aF-1001.3483013784067
aa(lp589
aF10.0
aa(lp590
g2
a(lp591
F487.60520778305948
aF-1022.3691132628837
aa(lp592
aF10.0
aa(lp593
g2
a(lp594
F530.04575554721634
aF-1022.2109455289636
aa(lp595
aF10.0
aa(lp596
g2
a(lp597
F528.07346354574668
aF-1019.1725005614879
aa(lp598
aF10.0
aa(lp599
g2
a(lp600
F577.95843271969704
aF-1008.3996157448776
aa(lp601
aF10.0
aa(lp602
g2
a(lp603
F542.19130722277305
aF-1019.4658594697254
aa(lp604
aF10.0
aa(lp605
g2
a(lp606
F477.47519312627645
aF-1018.1535472735665
aa(lp607
aF10.0
aa(lp608
g2
a(lp609
F532.79234862429291
aF-1001.4903288105559
aa(lp610
aF10.0
aa(lp611
g2
a(lp612
F649.51457949428163
aF-1019.9862770847819
aa(lp613
aF10.0
aa(lp614
g2
a(lp615
F518.79481673599594
aF-1017.1201190876486
aa(lp616
aF10.0
aa(lp617
g2
a(lp618
F606.6304171182926
aF-1015.539983052262
aa(lp619
aF10.0
aa(lp620
g2
a(lp621
F515.54729674787416
aF-1011.2365723464482
aa(lp622
aF10.0
aa(lp623
g2
a(lp624
F470.2413541996155
aF-1008.6456904343761
aa(lp625
aF10.0
aa(lp626
g2
a(lp627
F489.90159085429366
aF-1003.6453397446249
aa(lp628
aF10.0
aa(lp629
g2
a(lp630
F458.91152827738068
aF-1015.7434233058013
aa(lp631
aF10.0
aa(lp632
g2
a(lp633
F479.88829095704722
aF-1006.7136027738478
aa(lp634
aF10.0
aa(lp635
g2
a(lp636
F492.37803848332265
aF-1011.9156672538406
aa(lp637
aF10.0
aa(lp638
g2
a(lp639
F569.16236433939116
aF-1022.2855446795251
aa(lp640
aF10.0
aa(lp641
g2
a(lp642
F599.80761001701808
aF-1007.596758460813
aa(lp643
aF10.0
aa(lp644
g2
a(lp645
F609.3726512422852
aF-1003.1771560947291
aa(lp646
aF10.0
aa(lp647
g2
a(lp648
F603.14762137695845
aF-1007.4627906246866
aa(lp649
aF10.0
aa(lp650
g2
a(lp651
F730.46744964821812
aF-1010.1243681270741
aa(lp652
aF10.0
aa(lp653
g2
a(lp654
F847.42071537883385
aF-1013.7789098349124
aa(lp655
aF10.0
aa(lp656
g2
a(lp657
F588.02627671471566
aF-1021.7142414983632
aa(lp658
aF10.0
aa(lp659
g2
a(lp660
F471.19997726668981
aF-1015.6928171911255
aa(lp661
aF10.0
aa(lp662
g2
a(lp663
F474.28769390797856
aF-1014.3712420636873
aa(lp664
aF10.0
aa(lp665
g2
a(lp666
F849.88354744621017
aF-1027.3170073683543
aa(lp667
aF10.0
aa(lp668
g2
a(lp669
F839.28128669318494
aF-1004.6591805866343
aa(lp670
aF10.0
aa(lp671
g2
a(lp672
F519.41665504669299
aF-1014.3969579942265
aa(lp673
aF10.0
aa(lp674
g2
a(lp675
F528.58953458858389
aF-1010.7718931875506
aa(lp676
aF10.0
aa(lp677
g2
a(lp678
F847.36854202131917
aF-1005.2756663118596
aa(lp679
aF10.0
aa(lp680
g2
a(lp681
F868.73725134523067
aF-1018.3711006159186
aa(lp682
aF10.0
aa(lp683
g2
a(lp684
F598.5285112140258
aF-1015.2291000356065
aa(lp685
aF10.0
aa(lp686
g2
a(lp687
F485.14142595527329
aF-1005.8976063313487
aa(lp688
aF10.0
aa(lp689
g2
a(lp690
F612.2713365996641
aF-1018.4049601252487
aa(lp691
aF10.0
aa(lp692
g2
a(lp693
F519.11165888432947
aF-1007.7345524394503
aa(lp694
aF10.0
aa(lp695
g2
a(lp696
F580.23667422176732
aF-1011.565616188971
aa(lp697
aF10.0
aa(lp698
g2
a(lp699
F507.64773017246364
aF-1014.6042100061543
aa(lp700
aF10.0
aa(lp701
g2
a(lp702
F578.48000513138959
aF-1012.2261536502027
aa(lp703
aF10.0
aa(lp704
g2
a(lp705
F549.27957659066533
aF-1014.6073202455198
aa(lp706
aF10.0
aa(lp707
g2
a(lp708
F618.21782738684283
aF-1016.9033181983285
aa(lp709
aF10.0
aa(lp710
g2
a(lp711
F556.09781200963027
aF-1005.1373067674648
aa(lp712
aF10.0
aa(lp713
g2
a(lp714
F861.12975582674051
aF-1028.594546357788
aa(lp715
aF10.0
aa(lp716
g2
a(lp717
F555.27848746430118
aF-1016.3304737374299
aa(lp718
aF10.0
aa(lp719
g2
a(lp720
F601.82304710623339
aF-1022.1776573007525
aa(lp721
aF10.0
aa(lp722
g2
a(lp723
F722.95703617688991
aF-1018.8812672346608
aa(lp724
aF10.0
aa(lp725
g2
a(lp726
F501.3315269081765
aF-1007.6880648032511
aa(lp727
aF10.0
aa(lp728
g2
a(lp729
F1177.5629174788294
aF-1018.644432319223
aa(lp730
aF10.0
aa(lp731
g2
a(lp732
F540.91722541300533
aF-1011.5390558790507
aa(lp733
aF10.0
aa(lp734
g2
a(lp735
F826.06847352175441
aF-1021.1369963653513
aa(lp736
aF10.0
aa(lp737
g2
a(lp738
F605.36255900374215
aF-1023.7259755761197
aa(lp739
aF10.0
aa(lp740
g2
a(lp741
F877.45598170049436
aF-1017.8669749350039
aa(lp742
aF10.0
aa(lp743
g2
a(lp744
F564.14047884529555
aF-1021.7309210103565
aa(lp745
aF10.0
aa(lp746
g2
a(lp747
F878.40931131833281
aF-1017.7508604591536
aa(lp748
aF10.0
aa(lp749
g2
a(lp750
F594.85694012254271
aF-1016.3084405277118
aa(lp751
aF10.0
aa(lp752
g2
a(lp753
F882.5365843595705
aF-1016.9562545243937
aa(lp754
aF10.0
aa(lp755
g2
a(lp756
F-343.8076282936849
aF-1024.3459995286107
aa(lp757
aF10.0
aa(lp758
g2
a(lp759
F894.02536849457783
aF-1018.9855475893129
aa(lp760
aF10.0
aa(lp761
g2
a(lp762
F866.04543997574478
aF-1002.0648542097408
aa(lp763
aF10.0
aa(lp764
g2
a(lp765
F601.60174981681803
aF-1024.3109021799512
aa(lp766
aF10.0
aa(lp767
g2
a(lp768
F-46.247938000503297
aF-1014.0798055574423
aa(lp769
aF10.0
aa(lp770
S'Line'
p771
a(F192.0
F372.0
tp772
a(F194.0
F203.0
tp773
aa(lp774
g771
a(F194.0
F203.0
tp775
a(F993.0
F203.0
tp776
aa(lp777
g771
a(F189.0
F372.0
tp778
a(F227.0
F372.0
tp779
aa(lp780
g771
a(F227.0
F372.0
tp781
a(F226.0
F238.0
tp782
aa(lp783
g771
a(F226.0
F238.0
tp784
a(F983.0
F238.0
tp785
aa(lp786
g2
a(lp787
F3526.7428994146358
aF-1022.9268367056445
aa(lp788
aF10.0
aa(lp789
g2
a(lp790
F13389.51206483352
aF-1045.7479475971102
aa(lp791
aF10.0
aa(lp792
g2
a(lp793
F10057.706612379428
aF-1017.2166222198202
aa(lp794
aF10.0
aa(lp795
g2
a(lp796
F15735.892906706084
aF-1001.2937693220965
aa(lp797
aF10.0
aa(lp798
g2
a(lp799
F2462.4291906420663
aF-1012.7048831503804
aa(lp800
aF10.0
aa(lp801
g2
a(lp802
F14817.688302320219
aF-1021.9585460060673
aa(lp803
aF10.0
aa(lp804
g2
a(lp805
F47727.402975264122
aF-1038.6080476363909
aa(lp806
aF10.0
aa(lp807
g2
a(lp808
F15466.528702701416
aF-1027.6344024597101
aa(lp809
aF10.0
aa(lp810
g2
a(lp811
F15115.916920432985
aF-1027.8970227644768
aa(lp812
aF10.0
aa(lp813
g2
a(lp814
F1368.2067279702196
aF-1014.0429288391465
aa(lp815
aF10.0
aa(lp816
g2
a(lp817
F1781.0787304453145
aF-1019.8680675945254
aa(lp818
aF10.0
aa(lp819
g2
a(lp820
F1816.4496082610085
aF-1012.7552289236683
aa(lp821
aF10.0
aa(lp822
g2
a(lp823
F1755.7854240118509
aF-1021.610319022426
aa(lp824
aF10.0
aa(lp825
g2
a(lp826
F1551.4096406857236
aF-1022.2160036945169
aa(lp827
aF10.0
aa(lp828
g2
a(lp829
F149.28276471921447
aF-1009.3508416740891
aa(lp830
aF10.0
aa(lp831
g2
a(lp832
F1796.3194604434525
aF-1022.3329426542358
aa(lp833
aF10.0
aa(lp834
g2
a(lp835
F1809.4680051533733
aF-1022.6610918471423
aa(lp836
aF10.0
aa(lp837
g2
a(lp838
F2611.8701584633595
aF-1022.6390553712909
aa(lp839
aF10.0
aa(lp840
g2
a(lp841
F2884.135463299534
aF-1022.6545047328152
aa(lp842
aF10.0
aa(lp843
g2
a(lp844
F1605.6313692173348
aF-1022.8659164028489
aa(lp845
aF10.0
aa(lp846
g2
a(lp847
F2595.8284530144188
aF-1022.7110672252065
aa(lp848
aF10.0
aa(lp849
g2
a(lp850
F2618.4172940413882
aF-1022.6055819804919
aa(lp851
aF10.0
aa(lp852
g2
a(lp853
F2865.7717171494937
aF-1022.6490505485826
aa(lp854
aF10.0
aa(lp855
g2
a(lp856
F2860.1223953020558
aF-1022.6490843103956
aa(lp857
aF10.0
aa(lp858
g2
a(lp859
F1584.1519927752024
aF-1022.1302736499545
aa(lp860
aF10.0
aa(lp861
g771
a(F189.0
F205.0
tp862
a(F189.0
F205.0
tp863
aa(lp864
g771
a(F187.0
F374.0
tp865
a(F190.0
F201.0
tp866
aa.