(lp0
(lp1
S'Poly'
p2
a(lp3
F1464.2761242890574
aF-1016.3274377110547
aa(lp4
(lp5
I1466
aI-979
aa(lp6
I1498
aI-1030
aa(lp7
I1462
aI-1053
aa(lp8
I1430
aI-1002
aaaF2270.4166666666665
a(lp9
aa(lp10
g2
a(lp11
F-1937.2836841307228
aF-1009.5291352638884
aa(lp12
(lp13
I-1972
aI-1005
aa(lp14
I-1932
aI-974
aa(lp15
I-1902
aI-1013
aa(lp16
I-1941
aI-1044
aaaF2083.3333333333335
a(lp17
aa(lp18
S'Circle'
p19
a(lp20
F-1992.1047492582916
aF-1019.7187118924145
aa(lp21
aF20.0
aa(lp22
g19
a(lp23
F-1997.3700514115303
aF-1006.8291156818096
aa(lp24
aF20.0
aa(lp25
g2
a(lp26
F-359.40615997197693
aF-1001.0964075303742
aa(lp27
(lp28
I-351
aI-966
aa(lp29
I-324
aI-1008
aa(lp30
I-366
aI-1035
aa(lp31
I-393
aI-993
aaaF2083.3333333333335
a(lp32
aa(lp33
g19
a(lp34
F-373.60993828601414
aF-1027.3371897349202
aa(lp35
aF20.0
aa(lp36
g19
a(lp37
F-417.86026199014645
aF-1005.3815777723286
aa(lp38
aF20.0
aa(lp39
g2
a(lp40
F2068.340462701356
aF-916.55607097244922
aa(lp41
(lp42
I2059
aI-882
aa(lp43
I2102
aI-907
aa(lp44
I2077
aI-950
aa(lp45
I2034
aI-925
aaaF2083.3333333333335
a(lp46
aa(lp47
S'Line'
p48
a(F0.0
F491.0
tp49
a(F16.0
F282.0
tp50
aa(lp51
g48
a(F0.0
F490.0
tp52
a(F16.0
F281.0
tp53
aa(lp54
g48
a(F16.0
F282.0
tp55
a(F49.0
F141.0
tp56
aa(lp57
g48
a(F16.0
F281.0
tp58
a(F49.0
F140.0
tp59
aa(lp60
g48
a(F49.0
F141.0
tp61
a(F142.0
F21.0
tp62
aa(lp63
g48
a(F49.0
F140.0
tp64
a(F142.0
F20.0
tp65
aa(lp66
g48
a(F142.0
F21.0
tp67
a(F233.0
F-55.0
tp68
aa(lp69
g48
a(F142.0
F20.0
tp70
a(F233.0
F-56.0
tp71
aa(lp72
g48
a(F233.0
F-55.0
tp73
a(F337.0
F-86.0
tp74
aa(lp75
g48
a(F233.0
F-56.0
tp76
a(F337.0
F-87.0
tp77
aa(lp78
g48
a(F337.0
F-86.0
tp79
a(F709.0
F-90.0
tp80
aa(lp81
g48
a(F337.0
F-87.0
tp82
a(F709.0
F-91.0
tp83
aa(lp84
g48
a(F709.0
F-90.0
tp85
a(F1031.0
F-82.0
tp86
aa(lp87
g48
a(F709.0
F-91.0
tp88
a(F1031.0
F-83.0
tp89
aa(lp90
g48
a(F1031.0
F-82.0
tp91
a(F1105.0
F-58.0
tp92
aa(lp93
g48
a(F1031.0
F-83.0
tp94
a(F1105.0
F-59.0
tp95
aa(lp96
g48
a(F1105.0
F-58.0
tp97
a(F1194.0
F24.0
tp98
aa(lp99
g48
a(F1105.0
F-59.0
tp100
a(F1194.0
F23.0
tp101
aa(lp102
g48
a(F1194.0
F24.0
tp103
a(F1252.0
F139.0
tp104
aa(lp105
g48
a(F1194.0
F23.0
tp106
a(F1252.0
F138.0
tp107
aa(lp108
g48
a(F1252.0
F139.0
tp109
a(F1279.0
F507.0
tp110
aa(lp111
g48
a(F1252.0
F138.0
tp112
a(F1279.0
F506.0
tp113
aa(lp114
g2
a(lp115
F691.81066690316845
aF-21.226581798944977
aa(lp116
(lp117
I676
aI10
aa(lp118
I723
aI-6
aa(lp119
I706
aI-53
aa(lp120
I659
aI-36
aaaF2083.3333333333335
a(lp121
aa(lp122
g19
a(lp123
F660.94056340888346
aF-69.579547395577663
aa(lp124
aF20.0
aa(lp125
g19
a(lp126
F722.21172127067314
aF-69.675534442422759
aa(lp127
aF20.0
aa(lp128
g48
a(F1259.0
F174.0
tp129
a(F1234.0
F93.0
tp130
aa(lp131
g48
a(F1259.0
F173.0
tp132
a(F1234.0
F92.0
tp133
aa(lp134
g48
a(F1205.0
F35.0
tp135
a(F1190.0
F17.0
tp136
aa(lp137
g48
a(F1205.0
F34.0
tp138
a(F1190.0
F16.0
tp139
aa(lp140
g48
a(F1132.0
F-39.0
tp141
a(F1081.0
F-69.0
tp142
aa(lp143
g48
a(F1132.0
F-40.0
tp144
a(F1081.0
F-70.0
tp145
aa(lp146
g48
a(F1048.0
F-79.0
tp147
a(F1011.0
F-84.0
tp148
aa(lp149
g48
a(F1048.0
F-80.0
tp150
a(F1011.0
F-85.0
tp151
aa(lp152
g48
a(F38.0
F173.0
tp153
a(F64.0
F117.0
tp154
aa(lp155
g48
a(F38.0
F172.0
tp156
a(F64.0
F116.0
tp157
aa(lp158
g48
a(F128.0
F33.0
tp159
a(F150.0
F13.0
tp160
aa(lp161
g48
a(F128.0
F32.0
tp162
a(F150.0
F12.0
tp163
aa(lp164
g48
a(F214.0
F-48.0
tp165
a(F244.0
F-61.0
tp166
aa(lp167
g48
a(F214.0
F-49.0
tp168
a(F244.0
F-62.0
tp169
aa(lp170
g48
a(F216.0
F-43.0
tp171
a(F250.0
F-60.0
tp172
aa(lp173
g48
a(F216.0
F-44.0
tp174
a(F250.0
F-61.0
tp175
aa(lp176
g48
a(F312.0
F-80.0
tp177
a(F351.0
F-87.0
tp178
aa(lp179
g48
a(F312.0
F-81.0
tp180
a(F351.0
F-88.0
tp181
aa(lp182
g48
a(F11.0
F293.0
tp183
a(F16.0
F269.0
tp184
aa(lp185
g48
a(F11.0
F292.0
tp186
a(F16.0
F268.0
tp187
aa(lp188
g48
a(F12.0
F298.0
tp189
a(F19.0
F260.0
tp190
aa(lp191
g48
a(F12.0
F297.0
tp192
a(F19.0
F259.0
tp193
aa(lp194
S'Spring'
p195
a(lp196
F722.21172127067314
aF-69.675534442422759
aa(lp197
F660.94056340888346
aF-69.579547395577663
aaa(lp198
g195
a(lp199
F660.94056340888346
aF-69.579547395577663
aa(lp200
F691.81066690316845
aF-21.226581798944977
aaa(lp201
g195
a(lp202
F722.21172127067314
aF-69.675534442422759
aa(lp203
F691.81066690316845
aF-21.226581798944977
aaa.