(lp0
(lp1
S'Circle'
p2
a(lp3
F414.0
aF-1020.3779122386958
aa(lp4
aF10.0
aa(lp5
g2
a(lp6
F414.0
aF-1020.2159915756333
aa(lp7
aF10.0
aa(lp8
g2
a(lp9
F414.0
aF-1020.8585430477264
aa(lp10
aF10.0
aa(lp11
g2
a(lp12
F414.0
aF-1020.1076447365243
aa(lp13
aF10.0
aa(lp14
g2
a(lp15
F414.0
aF-1018.7894580485909
aa(lp16
aF10.0
aa(lp17
g2
a(lp18
F414.0
aF-1020.1352188220582
aa(lp19
aF10.0
aa(lp20
g2
a(lp21
F414.0
aF-1020.1537411511964
aa(lp22
aF10.0
aa(lp23
g2
a(lp24
F1286.692727676839
aF-1024.6109494875577
aa(lp25
aF10.0
aa(lp26
g2
a(lp27
F1373.350472822101
aF-1024.0491635418255
aa(lp28
aF10.0
aa(lp29
g2
a(lp30
F-220.82956466930662
aF-1024.6002879504479
aa(lp31
aF10.0
aa(lp32
g2
a(lp33
F-261.2815941373068
aF-1024.6104988322882
aa(lp34
aF10.0
aa(lp35
g2
a(lp36
F1345.3148872250536
aF-1018.4742427237687
aa(lp37
aF10.0
aa(lp38
g2
a(lp39
F-248.15625379700342
aF-1024.6080712474768
aa(lp40
aF10.0
aa(lp41
g2
a(lp42
F571.5187085410189
aF-1024.6000000014901
aa(lp43
aF10.0
aa(lp44
g2
a(lp45
F828.51259820136704
aF-1004.9754627092037
aa(lp46
aF10.0
aa(lp47
g2
a(lp48
F827.79021382919575
aF-1003.7866491396437
aa(lp49
aF10.0
aa(lp50
g2
a(lp51
F875.53546146388078
aF-1002.8527713486919
aa(lp52
aF10.0
aa(lp53
g2
a(lp54
F-124.04709348339171
aF-1023.3841266612942
aa(lp55
aF10.0
aa(lp56
g2
a(lp57
F-218.87988274597998
aF-1006.6644397367701
aa(lp58
aF10.0
aa(lp59
g2
a(lp60
F-233.48888879272408
aF-1021.1321238859781
aa(lp61
aF10.0
aa(lp62
g2
a(lp63
F-61.912731155353057
aF-1007.8488893281085
aa(lp64
aF10.0
aa(lp65
g2
a(lp66
F1155.0963038567554
aF-1024.6108935004352
aa(lp67
aF10.0
aa(lp68
g2
a(lp69
F875.42248871030813
aF-1002.4612637411466
aa(lp70
aF10.0
aa(lp71
g2
a(lp72
F-61.166412291937988
aF-1003.1188736284137
aa(lp73
aF10.0
aa(lp74
g2
a(lp75
F878.38806334506614
aF-1002.5365943786154
aa(lp76
aF10.0
aa(lp77
g2
a(lp78
F1120.0669754947146
aF-1013.667950610796
aa(lp79
aF10.0
aa(lp80
g2
a(lp81
F-207.64577949548365
aF-1016.7826138868157
aa(lp82
aF10.0
aa(lp83
g2
a(lp84
F1066.8322059321124
aF-1009.3905650411194
aa(lp85
aF10.0
aa(lp86
g2
a(lp87
F998.4085363700791
aF-1010.7031144108877
aa(lp88
aF10.0
aa(lp89
g2
a(lp90
F-253.08130996344343
aF-1024.7353163821067
aa(lp91
aF10.0
aa(lp92
g2
a(lp93
F-202.25918858983158
aF-1018.217890616397
aa(lp94
aF10.0
aa(lp95
g2
a(lp96
F1054.3309599169688
aF-1006.0485822531529
aa(lp97
aF10.0
aa(lp98
g2
a(lp99
F1170.4721255621369
aF-1021.7139820297471
aa(lp100
aF10.0
aa(lp101
g2
a(lp102
F-187.58476856478001
aF-1007.6520300189867
aa(lp103
aF10.0
aa(lp104
g2
a(lp105
F-218.08415198346901
aF-1000.0574579722352
aa(lp106
aF10.0
aa(lp107
g2
a(lp108
F1089.8771210683196
aF-1021.9333216567748
aa(lp109
aF10.0
aa(lp110
g2
a(lp111
F972.11811745037153
aF-1000.2434906133913
aa(lp112
aF10.0
aa(lp113
g2
a(lp114
F-111.15745063294608
aF-1006.0782714430177
aa(lp115
aF10.0
aa(lp116
g2
a(lp117
F-232.98581462432495
aF-1013.0553533495115
aa(lp118
aF10.0
aa(lp119
g2
a(lp120
F-256.95688301987116
aF-1008.3451405450367
aa(lp121
aF10.0
aa(lp122
g2
a(lp123
F-134.00202329673812
aF-1009.0550153602805
aa(lp124
aF10.0
aa(lp125
g2
a(lp126
F-328.79994979380393
aF-1003.4607479003862
aa(lp127
aF10.0
aa(lp128
g2
a(lp129
F-145.50181929563536
aF-1023.9901249161372
aa(lp130
aF10.0
aa(lp131
g2
a(lp132
F1122.2594423234868
aF-1018.786447446331
aa(lp133
aF10.0
aa(lp134
g2
a(lp135
F875.63115385040715
aF-1003.1870197626772
aa(lp136
aF10.0
aa(lp137
g2
a(lp138
F-312.99840547579464
aF-1009.1786533805555
aa(lp139
aF10.0
aa(lp140
g2
a(lp141
F967.61053748249208
aF-1002.5274824048597
aa(lp142
aF10.0
aa(lp143
g2
a(lp144
F1038.5635051275292
aF-1015.8177344630761
aa(lp145
aF10.0
aa(lp146
g2
a(lp147
F-348.06457706604442
aF-1018.730601119748
aa(lp148
aF10.0
aa(lp149
g2
a(lp150
F-128.45643420741288
aF-1023.5091593734918
aa(lp151
aF10.0
aa(lp152
g2
a(lp153
F-263.28832148767492
aF-1023.4603191404996
aa(lp154
aF10.0
aa(lp155
g2
a(lp156
F-236.68694877265074
aF-1000.9703916086594
aa(lp157
aF10.0
aa(lp158
g2
a(lp159
F988.6275370790371
aF-1020.2792691970351
aa(lp160
aF10.0
aa(lp161
g2
a(lp162
F-151.94872608993583
aF-1006.1718457405045
aa(lp163
aF10.0
aa(lp164
g2
a(lp165
F1064.8215215520997
aF-1014.274981946397
aa(lp166
aF10.0
aa(lp167
g2
a(lp168
F989.78934239357886
aF-1023.8801884096242
aa(lp169
aF10.0
aa(lp170
g2
a(lp171
F-351.26996302954143
aF-1001.1012137581931
aa(lp172
aF10.0
aa(lp173
g2
a(lp174
F-166.44764535520139
aF-1024.5186338967255
aa(lp175
aF10.0
aa(lp176
g2
a(lp177
F989.60749648891169
aF-1003.4839826491254
aa(lp178
aF10.0
aa(lp179
g2
a(lp180
F1066.795736298169
aF-1014.2091468830806
aa(lp181
aF10.0
aa(lp182
g2
a(lp183
F1091.4225312003241
aF-1021.17256167276
aa(lp184
aF10.0
aa(lp185
g2
a(lp186
F-309.64204777898158
aF-1021.038376940979
aa(lp187
aF10.0
aa(lp188
g2
a(lp189
F1000.4164476918273
aF-1008.4085656994497
aa(lp190
aF10.0
aa(lp191
g2
a(lp192
F-321.61990056973536
aF-1003.2649782708897
aa(lp193
aF10.0
aa(lp194
g2
a(lp195
F-320.26265362914501
aF-1013.8682739599384
aa(lp196
aF10.0
aa(lp197
g2
a(lp198
F1002.0063943882926
aF-1000.0380176351443
aa(lp199
aF10.0
aa(lp200
g2
a(lp201
F1118.997693737939
aF-1001.1380437933526
aa(lp202
aF10.0
aa(lp203
g2
a(lp204
F-265.6709586218534
aF-1008.9237588003032
aa(lp205
aF10.0
aa(lp206
g2
a(lp207
F-290.64611786683423
aF-1014.435848385907
aa(lp208
aF10.0
aa(lp209
g2
a(lp210
F1135.1618017576448
aF-1023.9357618990185
aa(lp211
aF10.0
aa(lp212
g2
a(lp213
F-323.5005224676521
aF-1015.3472369750909
aa(lp214
aF10.0
aa(lp215
g2
a(lp216
F-327.81778027596044
aF-1008.7864994729401
aa(lp217
aF10.0
aa(lp218
g2
a(lp219
F1134.5246403218853
aF-1000.1044703818608
aa(lp220
aF10.0
aa(lp221
g2
a(lp222
F-343.07137831444146
aF-1016.0725843645765
aa(lp223
aF10.0
aa(lp224
g2
a(lp225
F1087.8269366110253
aF-1012.3872167332739
aa(lp226
aF10.0
aa(lp227
g2
a(lp228
F-282.82340536771335
aF-1019.8432009256394
aa(lp229
aF10.0
aa(lp230
g2
a(lp231
F1020.5092269096388
aF-1072.6514058754849
aa(lp232
aF10.0
aa(lp233
g2
a(lp234
F-381.37147219184851
aF-1021.1910448229654
aa(lp235
aF10.0
aa(lp236
g2
a(lp237
F1118.5720544487888
aF-1006.119575325546
aa(lp238
aF10.0
aa(lp239
g2
a(lp240
F-202.5438593931477
aF-1024.676563636511
aa(lp241
aF10.0
aa(lp242
g2
a(lp243
F-198.95449044977065
aF-1021.7507026338892
aa(lp244
aF10.0
aa(lp245
g2
a(lp246
F1165.0253875645585
aF-1023.7290432345891
aa(lp247
aF10.0
aa(lp248
g2
a(lp249
F-179.42911369208014
aF-1012.0052059892341
aa(lp250
aF10.0
aa(lp251
g2
a(lp252
F-242.84848980159964
aF-1003.8044243336241
aa(lp253
aF10.0
aa(lp254
g2
a(lp255
F1183.599408687084
aF-1011.8011702720567
aa(lp256
aF10.0
aa(lp257
g2
a(lp258
F1103.9439984801718
aF-1017.5694812084661
aa(lp259
aF10.0
aa(lp260
g2
a(lp261
F-341.63546785559078
aF-1024.7593707014446
aa(lp262
aF10.0
aa(lp263
g2
a(lp264
F996.61829073303272
aF-1024.2311488035102
aa(lp265
aF10.0
aa(lp266
g2
a(lp267
F-347.74752538577661
aF-1014.9238560919607
aa(lp268
aF10.0
aa(lp269
g2
a(lp270
F1195.0461835506803
aF-1000.9049555433418
aa(lp271
aF10.0
aa(lp272
g2
a(lp273
F-272.23328303880771
aF-1010.9771940086622
aa(lp274
aF10.0
aa(lp275
g2
a(lp276
F1051.8078986142459
aF-1023.2213062500713
aa(lp277
aF10.0
aa(lp278
g2
a(lp279
F1052.8936799302019
aF-1024.3568185790291
aa(lp280
aF10.0
aa(lp281
g2
a(lp282
F1199.6614674193834
aF-1023.7816624661355
aa(lp283
aF10.0
aa(lp284
g2
a(lp285
F-280.00149157339695
aF-1013.2403899539324
aa(lp286
aF10.0
aa(lp287
g2
a(lp288
F-167.02214265756328
aF-1008.1526070181661
aa(lp289
aF10.0
aa(lp290
g2
a(lp291
F-227.47292228331213
aF-1022.577658555756
aa(lp292
aF10.0
aa(lp293
g2
a(lp294
F-290.13896162930752
aF-1014.2754717211515
aa(lp295
aF10.0
aa(lp296
g2
a(lp297
F-303.08776291940501
aF-1024.229218298525
aa(lp298
aF10.0
aa(lp299
g2
a(lp300
F1125.6553229611864
aF-1002.8900164537127
aa(lp301
aF10.0
aa(lp302
g2
a(lp303
F1154.7015775890957
aF-1027.8066581176377
aa(lp304
aF10.0
aa(lp305
g2
a(lp306
F-355.67954717359032
aF-1001.657314174861
aa(lp307
aF10.0
aa(lp308
g2
a(lp309
F1232.0390304309558
aF-1007.9034365800476
aa(lp310
aF10.0
aa(lp311
g2
a(lp312
F1140.4526698904747
aF-1028.8635322935559
aa(lp313
aF10.0
aa(lp314
g2
a(lp315
F1169.262094193235
aF-1012.0664085279092
aa(lp316
aF10.0
aa(lp317
g2
a(lp318
F-222.88204746520987
aF-1023.5100367772678
aa(lp319
aF10.0
aa(lp320
g2
a(lp321
F-367.71170260586871
aF-1022.018037523441
aa(lp322
aF10.0
aa(lp323
g2
a(lp324
F1083.8186568394563
aF-1013.9583344182389
aa(lp325
aF10.0
aa(lp326
S'Line'
p327
a(F238.0
F-77.0
tp328
a(F692.0
F-77.0
tp329
aF0.0
aa(lp330
g327
a(F238.0
F-78.0
tp331
a(F692.0
F-78.0
tp332
aF20.0
aa(lp333
g2
a(lp334
F458.0
aF-49.704232708842504
aa(lp335
aF10.0
aa(lp336
g2
a(lp337
F458.0
aF2970.3230452485695
aa(lp338
aF10.0
aa(lp339
g2
a(lp340
F458.0
aF2950.454579515369
aa(lp341
aF10.0
aa(lp342
g2
a(lp343
F458.0
aF2930.6018748911106
aa(lp344
aF10.0
aa(lp345
g2
a(lp346
F458.0
aF2910.764925353124
aa(lp347
aF10.0
aa(lp348
g2
a(lp349
F458.0
aF2890.943723374387
aa(lp350
aF10.0
aa(lp351
g2
a(lp352
F458.0
aF2871.1382599242979
aa(lp353
aF10.0
aa(lp354
g2
a(lp355
F458.0
aF2851.3485244696117
aa(lp356
aF10.0
aa(lp357
g2
a(lp358
F458.0
aF2831.5745049754878
aa(lp359
aF10.0
aa(lp360
g2
a(lp361
F458.0
aF2811.8161879066838
aa(lp362
aF10.0
aa(lp363
g2
a(lp364
F458.0
aF2792.0735582288839
aa(lp365
aF10.0
aa(lp366
g2
a(lp367
F458.0
aF2772.346599410163
aa(lp368
aF10.0
aa(lp369
g2
a(lp370
F458.0
aF2752.6352934225961
aa(lp371
aF10.0
aa(lp372
g2
a(lp373
F458.0
aF2732.9396207439991
aa(lp374
aF10.0
aa(lp375
g2
a(lp376
F458.0
aF2713.2595603598188
aa(lp377
aF10.0
aa(lp378
g2
a(lp379
F458.0
aF2693.5950897651624
aa(lp380
aF10.0
aa(lp381
g2
a(lp382
F458.0
aF2673.946184966976
aa(lp383
aF10.0
aa(lp384
g2
a(lp385
F458.0
aF2654.3128204863592
aa(lp386
aF10.0
aa(lp387
g2
a(lp388
F458.0
aF2634.6949693610404
aa(lp389
aF10.0
aa(lp390
g2
a(lp391
F458.0
aF2615.092603147993
aa(lp392
aF10.0
aa(lp393
g2
a(lp394
F458.0
aF2595.5056919261997
aa(lp395
aF10.0
aa(lp396
g2
a(lp397
F458.0
aF2575.9342042995772
aa(lp398
aF10.0
aa(lp399
g2
a(lp400
F458.0
aF2556.3781074000462
aa(lp401
aF10.0
aa(lp402
g2
a(lp403
F458.0
aF2536.8373668907589
aa(lp404
aF10.0
aa(lp405
g2
a(lp406
F458.0
aF2517.3119469694811
aa(lp407
aF10.0
aa(lp408
g2
a(lp409
F458.0
aF2497.801810372132
aa(lp410
aF10.0
aa(lp411
g2
a(lp412
F458.0
aF2478.3069183764824
aa(lp413
aF10.0
aa(lp414
g2
a(lp415
F458.0
aF2458.8272308060068
aa(lp416
aF10.0
aa(lp417
g2
a(lp418
F458.0
aF2439.3627060339004
aa(lp419
aF10.0
aa(lp420
g2
a(lp421
F458.0
aF2419.9133009872526
aa(lp422
aF10.0
aa(lp423
g2
a(lp424
F458.0
aF2400.4789711513836
aa(lp425
aF10.0
aa(lp426
g2
a(lp427
F458.0
aF2381.059670574341
aa(lp428
aF10.0
aa(lp429
g2
a(lp430
F458.0
aF2361.6553518715541
aa(lp431
aF10.0
aa(lp432
g2
a(lp433
F458.0
aF2342.2659662306569
aa(lp434
aF10.0
aa(lp435
g2
a(lp436
F458.0
aF2322.891463416468
aa(lp437
aF10.0
aa(lp438
g2
a(lp439
F458.0
aF2303.5317917761313
aa(lp440
aF10.0
aa(lp441
g2
a(lp442
F458.0
aF2284.1868982444166
aa(lp443
aF10.0
aa(lp444
g2
a(lp445
F458.0
aF2264.8567283491861
aa(lp446
aF10.0
aa(lp447
g2
a(lp448
F458.0
aF2245.5412262170153
aa(lp449
aF10.0
aa(lp450
g2
a(lp451
F458.0
aF2226.2403345789717
aa(lp452
aF10.0
aa(lp453
g2
a(lp454
F458.0
aF2206.9539947765538
aa(lp455
aF10.0
aa(lp456
g2
a(lp457
F458.0
aF2187.6821467677905
aa(lp458
aF10.0
aa(lp459
g2
a(lp460
F458.0
aF2168.4247291334832
aa(lp461
aF10.0
aa(lp462
g2
a(lp463
F458.0
aF2149.1816790836133
aa(lp464
aF10.0
aa(lp465
g2
a(lp466
F458.0
aF2129.9529324638947
aa(lp467
aF10.0
aa(lp468
g2
a(lp469
F458.0
aF2110.7384237624788
aa(lp470
aF10.0
aa(lp471
g2
a(lp472
F458.0
aF2091.5380861168069
aa(lp473
aF10.0
aa(lp474
g2
a(lp475
F458.0
aF2072.3518513206027
aa(lp476
aF10.0
aa(lp477
g2
a(lp478
F458.0
aF2053.1796498310164
aa(lp479
aF10.0
aa(lp480
g2
a(lp481
F458.0
aF2034.0214107759014
aa(lp482
aF10.0
aa(lp483
g2
a(lp484
F458.0
aF2014.8770619612353
aa(lp485
aF10.0
aa(lp486
g2
a(lp487
F458.0
aF1995.7465298786703
aa(lp488
aF10.0
aa(lp489
g2
a(lp490
F458.0
aF1976.62973971322
aa(lp491
aF10.0
aa(lp492
g2
a(lp493
F458.0
aF1957.5266153510734
aa(lp494
aF10.0
aa(lp495
g2
a(lp496
F458.0
aF1938.4370793875351
aa(lp497
aF10.0
aa(lp498
g2
a(lp499
F458.0
aF1919.3610531350917
aa(lp500
aF10.0
aa(lp501
g2
a(lp502
F458.0
aF1900.298456631594
aa(lp503
aF10.0
aa(lp504
g2
a(lp505
F458.0
aF1881.2492086485609
aa(lp506
aF10.0
aa(lp507
g2
a(lp508
F458.0
aF1862.213226699593
aa(lp509
aF10.0
aa(lp510
g2
a(lp511
F458.0
aF1843.190427048899
aa(lp512
aF10.0
aa(lp513
g2
a(lp514
F458.0
aF1824.180724719932
aa(lp515
aF10.0
aa(lp516
g2
a(lp517
F458.0
aF1805.1840335041243
aa(lp518
aF10.0
aa(lp519
g2
a(lp520
F458.0
aF1786.2002659697305
aa(lp521
aF10.0
aa(lp522
g2
a(lp523
F458.0
aF1767.2293334707624
aa(lp524
aF10.0
aa(lp525
g2
a(lp526
F458.0
aF1748.271146156025
aa(lp527
aF10.0
aa(lp528
g2
a(lp529
F458.0
aF1729.3256129782394
aa(lp530
aF10.0
aa(lp531
g2
a(lp532
F458.0
aF1710.3926417032606
aa(lp533
aF10.0
aa(lp534
g2
a(lp535
F458.0
aF1691.4721389193764
aa(lp536
aF10.0
aa(lp537
g2
a(lp538
F458.0
aF1672.5640100466946
aa(lp539
aF10.0
aa(lp540
g2
a(lp541
F458.0
aF-31.408159907632591
aa(lp542
aF10.0
aa(lp543
g2
a(lp544
F458.0
aF-13.111628900969194
aa(lp545
aF10.0
aa(lp546
g2
a(lp547
F458.0
aF702.18838953745126
aa(lp548
aF10.0
aa(lp549
g2
a(lp550
F458.0
aF720.62098056022046
aa(lp551
aF10.0
aa(lp552
g2
a(lp553
F458.0
aF1653.6681593466108
aa(lp554
aF10.0
aa(lp555
g2
a(lp556
F458.0
aF1634.7844899313536
aa(lp557
aF10.0
aa(lp558
g2
a(lp559
F458.0
aF1615.9129037736077
aa(lp560
aF10.0
aa(lp561
g2
a(lp562
F458.0
aF1597.0533017162129
aa(lp563
aF10.0
aa(lp564
g2
a(lp565
F458.0
aF1578.2055834819325
aa(lp566
aF10.0
aa(lp567
g2
a(lp568
F458.0
aF1559.3696476832956
aa(lp569
aF10.0
aa(lp570
g2
a(lp571
F458.0
aF1540.5453918325081
aa(lp572
aF10.0
aa(lp573
g2
a(lp574
F458.0
aF1484.1189297589765
aa(lp575
aF10.0
aa(lp576
g2
a(lp577
F458.0
aF1520.645391833998
aa(lp578
aF10.0
aa(lp579
g2
a(lp580
F458.0
aF1501.8211359832105
aa(lp581
aF10.0
aa(lp582
g2
a(lp583
F458.0
aF1465.3405607532457
aa(lp584
aF10.0
aa(lp585
g2
a(lp586
F458.0
aF1446.5733452026723
aa(lp587
aF10.0
aa(lp588
g2
a(lp589
F458.0
aF1427.8171742087288
aa(lp590
aF10.0
aa(lp591
g2
a(lp592
F458.0
aF1409.0719378436361
aa(lp593
aF10.0
aa(lp594
g2
a(lp595
F458.0
aF1390.3375251607861
aa(lp596
aF10.0
aa(lp597
g2
a(lp598
F458.0
aF1371.6138242052227
aa(lp599
aF10.0
aa(lp600
g2
a(lp601
F458.0
aF1352.9007220241881
aa(lp602
aF10.0
aa(lp603
g2
a(lp604
F458.0
aF1334.1981046777216
aa(lp605
aF10.0
aa(lp606
g2
a(lp607
F458.0
aF1315.5058572493278
aa(lp608
aF10.0
aa(lp609
g2
a(lp610
F458.0
aF1296.8238638567009
aa(lp611
aF10.0
aa(lp612
g2
a(lp613
F458.0
aF1278.15200766251
aa(lp614
aF10.0
aa(lp615
g2
a(lp616
F458.0
aF1259.4901708852501
aa(lp617
aF10.0
aa(lp618
g2
a(lp619
F458.0
aF1240.8382348101511
aa(lp620
aF10.0
aa(lp621
g2
a(lp622
F458.0
aF1222.1960798001553
aa(lp623
aF10.0
aa(lp624
g2
a(lp625
F458.0
aF1203.5635853069523
aa(lp626
aF10.0
aa(lp627
g2
a(lp628
F458.0
aF1184.9406298820838
aa(lp629
aF10.0
aa(lp630
g2
a(lp631
F458.0
aF1166.3270911881148
aa(lp632
aF10.0
aa(lp633
g2
a(lp634
F458.0
aF1147.7228460098645
aa(lp635
aF10.0
aa(lp636
g2
a(lp637
F458.0
aF1129.1277702657148
aa(lp638
aF10.0
aa(lp639
g2
a(lp640
F458.0
aF1110.5417390189775
aa(lp641
aF10.0
aa(lp642
g2
a(lp643
F458.0
aF1091.9646264893397
aa(lp644
aF10.0
aa(lp645
g2
a(lp646
F458.0
aF1073.3963060643739
aa(lp647
aF10.0
aa(lp648
g2
a(lp649
F458.0
aF1054.8366503111222
aa(lp650
aF10.0
aa(lp651
g2
a(lp652
F458.0
aF1036.2855309877521
aa(lp653
aF10.0
aa(lp654
g2
a(lp655
F458.0
aF1017.7428190552878
aa(lp656
aF10.0
aa(lp657
g2
a(lp658
F458.0
aF999.20838468941463
aa(lp659
aF10.0
aa(lp660
g2
a(lp661
F458.0
aF980.68209729235798
aa(lp662
aF10.0
aa(lp663
g2
a(lp664
F458.0
aF962.16382550484025
aa(lp665
aF10.0
aa(lp666
g2
a(lp667
F458.0
aF943.65343721811416
aa(lp668
aF10.0
aa(lp669
g2
a(lp670
F458.0
aF925.15079958607294
aa(lp671
aF10.0
aa(lp672
g2
a(lp673
F458.0
aF906.65577903743997
aa(lp674
aF10.0
aa(lp675
g2
a(lp676
F458.0
aF888.16824128803637
aa(lp677
aF10.0
aa(lp678
g2
a(lp679
F458.0
aF869.68805135312948
aa(lp680
aF10.0
aa(lp681
g2
a(lp682
F458.0
aF851.21507355985716
aa(lp683
aF10.0
aa(lp684
g2
a(lp685
F458.0
aF832.74917155973776
aa(lp686
aF10.0
aa(lp687
g2
a(lp688
F458.0
aF814.2902083412539
aa(lp689
aF10.0
aa(lp690
g2
a(lp691
F458.0
aF795.83804624252218
aa(lp692
aF10.0
aa(lp693
g2
a(lp694
F458.0
aF777.39254696403793
aa(lp695
aF10.0
aa(lp696
g2
a(lp697
F458.0
aF758.95357158150375
aa(lp698
aF10.0
aa(lp699
g2
a(lp700
F458.0
aF740.52098055873455
aa(lp701
aF10.0
aa(lp702
g2
a(lp703
F458.0
aF683.76218287444749
aa(lp704
aF10.0
aa(lp705
g2
a(lp706
F458.0
aF666.83418590532597
aa(lp707
aF10.0
aa(lp708
g2
a(lp709
F458.0
aF648.43183037366498
aa(lp710
aF10.0
aa(lp711
g2
a(lp712
F458.0
aF630.03501146636165
aa(lp713
aF10.0
aa(lp714
g2
a(lp715
F458.0
aF611.64358569164619
aa(lp716
aF10.0
aa(lp717
g2
a(lp718
F458.0
aF593.25740905169266
aa(lp719
aF10.0
aa(lp720
g2
a(lp721
F458.0
aF574.87633705621761
aa(lp722
aF10.0
aa(lp723
g2
a(lp724
F458.0
aF556.5002247361474
aa(lp725
aF10.0
aa(lp726
g2
a(lp727
F458.0
aF538.12892665735785
aa(lp728
aF10.0
aa(lp729
g2
a(lp730
F458.0
aF519.76229693448238
aa(lp731
aF10.0
aa(lp732
g2
a(lp733
F458.0
aF501.40018924478574
aa(lp734
aF10.0
aa(lp735
g2
a(lp736
F458.0
aF483.04245684210395
aa(lp737
aF10.0
aa(lp738
g2
a(lp739
F458.0
aF464.68895257084853
aa(lp740
aF10.0
aa(lp741
g2
a(lp742
F458.0
aF446.3395288800715
aa(lp743
aF10.0
aa(lp744
g2
a(lp745
F458.0
aF427.99403783759101
aa(lp746
aF10.0
aa(lp747
g2
a(lp748
F458.0
aF409.65233114417509
aa(lp749
aF10.0
aa(lp750
g2
a(lp751
F458.0
aF391.31426014778106
aa(lp752
aF10.0
aa(lp753
g2
a(lp754
F458.0
aF372.97967585784983
aa(lp755
aF10.0
aa(lp756
g2
a(lp757
F458.0
aF354.64842895965188
aa(lp758
aF10.0
aa(lp759
g2
a(lp760
F458.0
aF336.32036982868226
aa(lp761
aF10.0
aa(lp762
g2
a(lp763
F458.0
aF317.99534854510557
aa(lp764
aF10.0
aa(lp765
g2
a(lp766
F458.0
aF299.67321490824401
aa(lp767
aF10.0
aa(lp768
g2
a(lp769
F458.0
aF281.3538184511101
aa(lp770
aF10.0
aa(lp771
g2
a(lp772
F458.0
aF263.03700845498082
aa(lp773
aF10.0
aa(lp774
g2
a(lp775
F458.0
aF244.72263396400888
aa(lp776
aF10.0
aa(lp777
g2
a(lp778
F458.0
aF226.41054379987281
aa(lp779
aF10.0
aa(lp780
g2
a(lp781
F458.0
aF208.10058657645871
aa(lp782
aF10.0
aa(lp783
g2
a(lp784
F458.0
aF189.79261071457532
aa(lp785
aF10.0
aa(lp786
g2
a(lp787
F458.0
aF171.48646445669795
aa(lp788
aF10.0
aa(lp789
g2
a(lp790
F458.0
aF153.1819958817394
aa(lp791
aF10.0
aa(lp792
g2
a(lp793
F458.0
aF134.87905291984524
aa(lp794
aF10.0
aa(lp795
g2
a(lp796
F458.0
aF116.57748336721167
aa(lp797
aF10.0
aa(lp798
g2
a(lp799
F458.0
aF98.277134900922576
aa(lp800
aF10.0
aa(lp801
g2
a(lp802
F458.0
aF79.97785509380401
aa(lp803
aF10.0
aa(lp804
g2
a(lp805
F458.0
aF61.679491429293677
aa(lp806
aF10.0
aa(lp807
g2
a(lp808
F458.0
aF43.381891316322346
aa(lp809
aF10.0
aa(lp810
g2
a(lp811
F458.0
aF25.084902104205497
aa(lp812
aF10.0
aa(lp813
g2
a(lp814
F458.0
aF6.7883710975420914
aa(lp815
aF10.0
aa(lp816
g327
a(F1059.0
F554.0
tp817
a(F1064.0
F499.0
tp818
aF0.0
aa(lp819
g327
a(F1059.0
F553.0
tp820
a(F1064.0
F498.0
tp821
aF20.0
aa(lp822
g327
a(F1064.0
F499.0
tp823
a(F1142.0
F505.0
tp824
aF0.0
aa(lp825
g327
a(F1064.0
F498.0
tp826
a(F1142.0
F504.0
tp827
aF20.0
aa(lp828
g327
a(F1142.0
F505.0
tp829
a(F1127.0
F577.0
tp830
aF0.0
aa(lp831
g327
a(F1142.0
F504.0
tp832
a(F1127.0
F576.0
tp833
aF20.0
aa(lp834
g327
a(F1127.0
F577.0
tp835
a(F1072.0
F562.0
tp836
aF0.0
aa(lp837
g327
a(F1127.0
F576.0
tp838
a(F1072.0
F561.0
tp839
aF20.0
aa(lp840
g2
a(lp841
F1105.7754910877504
aF531.27614074741984
aa(lp842
F10.0
aaF10.0
aa.