(lp0
(lp1
S'Line'
p2
a(F176.0
F368.0
tp3
a(F223.0
F309.0
tp4
aa(lp5
g2
a(F223.0
F309.0
tp6
a(F255.0
F271.0
tp7
aa(lp8
g2
a(F255.0
F271.0
tp9
a(F296.0
F242.0
tp10
aa(lp11
g2
a(F296.0
F242.0
tp12
a(F332.0
F220.0
tp13
aa(lp14
g2
a(F332.0
F220.0
tp15
a(F372.0
F203.0
tp16
aa(lp17
g2
a(F372.0
F203.0
tp18
a(F420.0
F189.0
tp19
aa(lp20
g2
a(F420.0
F189.0
tp21
a(F455.0
F183.0
tp22
aa(lp23
g2
a(F455.0
F183.0
tp24
a(F494.0
F179.0
tp25
aa(lp26
g2
a(F494.0
F179.0
tp27
a(F534.0
F175.0
tp28
aa(lp29
g2
a(F534.0
F175.0
tp30
a(F574.0
F175.0
tp31
aa(lp32
g2
a(F574.0
F175.0
tp33
a(F620.0
F176.0
tp34
aa(lp35
g2
a(F620.0
F176.0
tp36
a(F656.0
F176.0
tp37
aa(lp38
S'Circle'
p39
a(lp40
F1458.2936695380167
aF-1000.5665225426952
aa(lp41
aF10.0
aa(lp42
g39
a(lp43
F1458.2936695380167
aF-1000.5665225426952
aa(lp44
aF10.0
aa(lp45
g39
a(lp46
F1458.2936695380167
aF-1000.5665225426952
aa(lp47
aF10.0
aa(lp48
g39
a(lp49
F1458.2936695380167
aF-1000.5665225426952
aa(lp50
aF10.0
aa(lp51
g39
a(lp52
F1458.2936695380167
aF-1000.5665225426952
aa(lp53
aF10.0
aa(lp54
g39
a(lp55
F1458.2936695380167
aF-1000.5665225426952
aa(lp56
aF10.0
aa(lp57
g39
a(lp58
F1458.2936695380165
aF-1000.5665225426949
aa(lp59
aF10.0
aa(lp60
g39
a(lp61
F1458.2936695380165
aF-1000.5665225426949
aa(lp62
aF10.0
aa(lp63
g39
a(lp64
F1458.2936695380165
aF-1000.5665225426949
aa(lp65
aF10.0
aa(lp66
g2
a(F60.0
F303.0
tp67
a(F65.0
F297.0
tp68
aa(lp69
g2
a(F65.0
F297.0
tp70
a(F74.0
F287.0
tp71
aa(lp72
g2
a(F74.0
F287.0
tp73
a(F82.0
F279.0
tp74
aa(lp75
g2
a(F82.0
F279.0
tp76
a(F93.0
F270.0
tp77
aa(lp78
g2
a(F93.0
F270.0
tp79
a(F102.0
F262.0
tp80
aa(lp81
g2
a(F102.0
F262.0
tp82
a(F127.0
F246.0
tp83
aa(lp84
g2
a(F127.0
F246.0
tp85
a(F142.0
F231.0
tp86
aa(lp87
g2
a(F142.0
F231.0
tp88
a(F174.0
F211.0
tp89
aa(lp90
g2
a(F174.0
F211.0
tp91
a(F210.0
F197.0
tp92
aa(lp93
g2
a(F210.0
F197.0
tp94
a(F246.0
F176.0
tp95
aa(lp96
g2
a(F246.0
F176.0
tp97
a(F319.0
F141.0
tp98
aa(lp99
g2
a(F319.0
F141.0
tp100
a(F388.0
F115.0
tp101
aa(lp102
g2
a(F388.0
F115.0
tp103
a(F447.0
F106.0
tp104
aa(lp105
g2
a(F447.0
F106.0
tp106
a(F533.0
F91.0
tp107
aa(lp108
g2
a(F533.0
F91.0
tp109
a(F586.0
F89.0
tp110
aa(lp111
g2
a(F586.0
F89.0
tp112
a(F636.0
F86.0
tp113
aa(lp114
g2
a(F636.0
F86.0
tp115
a(F655.0
F85.0
tp116
aa(lp117
g2
a(F655.0
F85.0
tp118
a(F675.0
F84.0
tp119
aa(lp120
g39
a(lp121
F1359.0315554488338
aF-1016.1571381624119
aa(lp122
aF10.0
aa(lp123
g2
a(F471.0
F456.0
tp124
a(F486.0
F445.0
tp125
aa(lp126
g2
a(F486.0
F445.0
tp127
a(F546.0
F388.0
tp128
aa(lp129
g2
a(F546.0
F388.0
tp130
a(F649.0
F322.0
tp131
aa(lp132
g2
a(F649.0
F322.0
tp133
a(F742.0
F283.0
tp134
aa(lp135
g2
a(F742.0
F283.0
tp136
a(F805.0
F266.0
tp137
aa(lp138
g2
a(F805.0
F266.0
tp139
a(F851.0
F260.0
tp140
aa(lp141
g2
a(F851.0
F260.0
tp142
a(F881.0
F257.0
tp143
aa(lp144
g2
a(F881.0
F257.0
tp145
a(F907.0
F256.0
tp146
aa(lp147
g2
a(F907.0
F256.0
tp148
a(F925.0
F256.0
tp149
aa(lp150
g2
a(F289.0
F421.0
tp151
a(F303.0
F408.0
tp152
aa(lp153
g2
a(F303.0
F408.0
tp154
a(F329.0
F389.0
tp155
aa(lp156
g2
a(F329.0
F389.0
tp157
a(F362.0
F362.0
tp158
aa(lp159
g2
a(F362.0
F362.0
tp160
a(F410.0
F337.0
tp161
aa(lp162
g2
a(F410.0
F337.0
tp163
a(F483.0
F304.0
tp164
aa(lp165
g2
a(F483.0
F304.0
tp166
a(F546.0
F286.0
tp167
aa(lp168
g2
a(F546.0
F286.0
tp169
a(F605.0
F270.0
tp170
aa(lp171
g2
a(F605.0
F270.0
tp172
a(F655.0
F259.0
tp173
aa(lp174
g2
a(F655.0
F259.0
tp175
a(F696.0
F252.0
tp176
aa(lp177
g2
a(F696.0
F252.0
tp178
a(F741.0
F243.0
tp179
aa(lp180
g2
a(F741.0
F243.0
tp181
a(F764.0
F243.0
tp182
aa(lp183
g39
a(lp184
F1540.2005287663549
aF-1006.204270964304
aa(lp185
aF10.0
aa(lp186
g39
a(lp187
F1733.5856262309371
aF-1014.3930138676072
aa(lp188
aF10.0
aa(lp189
g39
a(lp190
F1399.1080837696895
aF-1000.2647028751176
aa(lp191
aF10.0
aa(lp192
g39
a(lp193
F1329.2736103704315
aF-707.02526180353118
aa(lp194
aF10.0
aa.