(lp0
(lp1
S'Circle'
p2
a(lp3
F945.36649112181158
aF-1015.4629009092265
aa(lp4
aF10.0
aa(lp5
g2
a(lp6
F942.76520979942256
aF-1002.9909151262683
aa(lp7
aF10.0
aa(lp8
g2
a(lp9
F952.5096567451285
aF-1014.9398560265505
aa(lp10
aF10.0
aa(lp11
g2
a(lp12
F643.27273712654767
aF-1011.2986255086003
aa(lp13
aF10.0
aa(lp14
g2
a(lp15
F1001.304362821091
aF-1003.3791725151607
aa(lp16
aF10.0
aa(lp17
g2
a(lp18
F983.22034564905925
aF-1013.9342732036217
aa(lp19
aF10.0
aa(lp20
g2
a(lp21
F989.01526476254935
aF-1025.6199320871958
aa(lp22
aF10.0
aa(lp23
g2
a(lp24
F-980.28990056684472
aF-1003.0681576217095
aa(lp25
aF10.0
aa(lp26
g2
a(lp27
F931.32266618655865
aF-1017.9590386324904
aa(lp28
aF10.0
aa(lp29
g2
a(lp30
F-1393.5832069859616
aF-1005.5034341654141
aa(lp31
aF10.0
aa(lp32
g2
a(lp33
F88.892168743568135
aF-1024.0570718239203
aa(lp34
aF10.0
aa(lp35
g2
a(lp36
F-648.96887708884924
aF-1010.7798317117645
aa(lp37
aF10.0
aa(lp38
g2
a(lp39
F-78.666402373902102
aF-1017.9673042807684
aa(lp40
aF10.0
aa(lp41
g2
a(lp42
F-52.567038939974466
aF-1023.0352567569175
aa(lp43
aF10.0
aa(lp44
g2
a(lp45
F-796.40118035991338
aF-1026.5327235435952
aa(lp46
aF10.0
aa(lp47
g2
a(lp48
F616.06678946981583
aF-1010.5979564625696
aa(lp49
aF10.0
aa(lp50
g2
a(lp51
F-1539.4046449310354
aF-1003.0229890938784
aa(lp52
aF10.0
aa(lp53
g2
a(lp54
F548.38940260094705
aF-1020.7092706686933
aa(lp55
aF10.0
aa(lp56
g2
a(lp57
F593.45032305945415
aF-1023.8706710880563
aa(lp58
aF10.0
aa(lp59
g2
a(lp60
F564.50654573783595
aF-1024.2385594692355
aa(lp61
aF10.0
aa(lp62
g2
a(lp63
F954.73027799752811
aF-1024.8222011329628
aa(lp64
aF10.0
aa(lp65
g2
a(lp66
F952.11340044168958
aF-1005.4690257864839
aa(lp67
aF10.0
aa(lp68
g2
a(lp69
F936.79242888569786
aF-1006.2998809102043
aa(lp70
aF10.0
aa(lp71
g2
a(lp72
F-638.53926173355842
aF-1014.734209041345
aa(lp73
aF10.0
aa(lp74
g2
a(lp75
F935.78725834676197
aF-1005.2138501110796
aa(lp76
aF10.0
aa(lp77
g2
a(lp78
F-406.23868202935273
aF-1017.7610782262594
aa(lp79
aF10.0
aa(lp80
g2
a(lp81
F1050.0924695184867
aF-1005.7460573652786
aa(lp82
aF10.0
aa(lp83
g2
a(lp84
F576.04783586853466
aF-1017.8113501418225
aa(lp85
aF10.0
aa(lp86
g2
a(lp87
F1071.8043339036853
aF-1006.6447335170695
aa(lp88
aF10.0
aa(lp89
g2
a(lp90
F957.8002708017608
aF-1011.119968653574
aa(lp91
aF10.0
aa(lp92
g2
a(lp93
F-525.88628339404966
aF-1026.0015424134444
aa(lp94
aF10.0
aa(lp95
g2
a(lp96
F938.99595146392551
aF-1016.7807816480189
aa(lp97
aF10.0
aa(lp98
S'Poly'
p99
a(lp100
F1285.6366502109702
aF-1011.0084156433288
aa(lp101
(lp102
I1293
aI-1045
aa(lp103
I1251
aI-1019
aa(lp104
I1277
aI-976
aa(lp105
I1320
aI-1002
aaaF2083.3333333333335
a(lp106
aa(lp107
g2
a(lp108
F1338.5739146420062
aF-1003.3618638204599
aa(lp109
aF20.0
aa(lp110
g2
a(lp111
F1291.6673794963046
aF-1019.7401782114287
aa(lp112
aF20.0
aa(lp113
g99
a(lp114
F-1371.0302016746523
aF-1019.3358310199353
aa(lp115
(lp116
I-1337
aI-1031
aa(lp117
I-1383
aI-1052
aa(lp118
I-1404
aI-1007
aa(lp119
I-1359
aI-986
aaaF2083.3333333333335
a(lp120
aa(lp121
g2
a(lp122
F-1311.6164470568053
aF-1007.9123108136068
aa(lp123
aF20.0
aa(lp124
g2
a(lp125
F-1387.062515804746
aF-1000.638883393577
aa(lp126
aF20.0
aa(lp127
g99
a(lp128
F1360.1100780469833
aF-1022.5235634802867
aa(lp129
(lp130
I1368
aI-988
aa(lp131
I1394
aI-1030
aa(lp132
I1352
aI-1056
aa(lp133
I1325
aI-1014
aaaF2083.3333333333335
a(lp134
aa(lp135
g2
a(lp136
F1403.6214745535883
aF-1003.2879772061125
aa(lp137
aF20.0
aa(lp138
g2
a(lp139
F1348.3715867726817
aF-1019.5507320543339
aa(lp140
aF20.0
aa(lp141
g99
a(lp142
F-134.94633802405306
aF-1025.9482241250832
aa(lp143
(lp144
I-111
aI-1052
aa(lp145
I-161
aI-1049
aa(lp146
I-158
aI-999
aa(lp147
I-108
aI-1002
aaaF2083.3333333333335
a(lp148
aa(lp149
g2
a(lp150
F-95.40888347489927
aF-1023.7674061482547
aa(lp151
aF20.0
aa(lp152
g2
a(lp153
F-74.245355527284204
aF-1025.6447327770895
aa(lp154
aF20.0
aa(lp155
g99
a(lp156
F63.924781183827207
aF-1006.5239129033253
aa(lp157
(lp158
I91
aI-984
aa(lp159
I86
aI-1033
aa(lp160
I36
aI-1029
aa(lp161
I41
aI-979
aaaF2083.3333333333335
a(lp162
aa(lp163
g2
a(lp164
F53.704741112242004
aF-1015.6859540329664
aa(lp165
aF20.0
aa(lp166
g2
a(lp167
F108.74902095509597
aF-1028.2451829300924
aa(lp168
aF20.0
aa(lp169
g99
a(lp170
F1522.2170535428502
aF-1023.6226155090172
aa(lp171
(lp172
I1493
aI-1003
aa(lp173
I1542
aI-994
aa(lp174
I1551
aI-1044
aa(lp175
I1501
aI-1052
aaaF2083.3333333333335
a(lp176
aa(lp177
g2
a(lp178
F1462.2878723175859
aF-1019.1604686659105
aa(lp179
aF20.0
aa(lp180
g2
a(lp181
F1478.0969646978351
aF-1015.1310173069998
aa(lp182
aF20.0
aa(lp183
g99
a(lp184
F720.0
aF-1021.25
aa(lp185
(lp186
I717
aI-1022
aa(lp187
I717
aI-1019
aa(lp188
I723
aI-1019
aa(lp189
I723
aI-1022
aaaF18.75
a(lp190
aa(lp191
g99
a(lp192
F139.0
aF-1018.0
aa(lp193
(lp194
L0L
aL0L
aa(lp195
L0L
aL0L
aa(lp196
L0L
aL0L
aa(lp197
L0L
aL0L
aaaFnan
a(lp198
aa(lp199
g99
a(lp200
F139.0
aF-1019.0
aa(lp201
(lp202
L0L
aL0L
aa(lp203
L0L
aL0L
aa(lp204
L0L
aL0L
aa(lp205
L0L
aL0L
aaaFnan
a(lp206
aa(lp207
g99
a(lp208
F139.0
aF-1019.0
aa(lp209
(lp210
L0L
aL0L
aa(lp211
L0L
aL0L
aa(lp212
L0L
aL0L
aa(lp213
L0L
aL0L
aaaFnan
a(lp214
aa(lp215
g99
a(lp216
F663.74393327443784
aF-1005.2496772830191
aa(lp217
(lp218
I664
aI-1002
aa(lp219
I665
aI-1002
aa(lp220
I663
aI-1008
aa(lp221
I662
aI-1007
aaaF15.416666666666666
a(lp222
aa(lp223
g99
a(lp224
F616.9010496453285
aF-1011.5771925398506
aa(lp225
(lp226
I626
aI-1007
aa(lp227
I612
aI-1020
aa(lp228
I607
aI-1015
aa(lp229
I621
aI-1002
aaaF170.83333333333334
a(lp230
aa(lp231
g99
a(lp232
F636.84089994596536
aF-1013.4184707735301
aa(lp233
(lp234
I639
aI-989
aa(lp235
I653
aI-996
aa(lp236
I633
aI-1036
aa(lp237
I620
aI-1030
aaaF937.5
a(lp238
aa(lp239
g2
a(lp240
F372.03195263234551
aF-1003.035152370502
aa(lp241
aF20.0
aa(lp242
S'Line'
p243
a(F341.0
F358.0
tp244
a(F436.0
F99.0
tp245
aa(lp246
g243
a(F341.0
F357.0
tp247
a(F436.0
F98.0
tp248
aa(lp249
g243
a(F436.0
F99.0
tp250
a(F776.0
F130.0
tp251
aa(lp252
g243
a(F436.0
F98.0
tp253
a(F776.0
F129.0
tp254
aa(lp255
g243
a(F776.0
F130.0
tp256
a(F944.0
F474.0
tp257
aa(lp258
g243
a(F776.0
F129.0
tp259
a(F944.0
F473.0
tp260
aa(lp261
g99
a(lp262
F516.10592203897943
aF369.0609321855319
aa(lp263
(lp264
I551
aI371
aa(lp265
I518
aI333
aa(lp266
I480
aI367
aa(lp267
I514
aI404
aaaF2083.3333333333335
a(lp268
aa(lp269
g2
a(lp270
F476.31349008937565
aF317.0314300650607
aa(lp271
aF20.0
aa(lp272
g2
a(lp273
F531.03209530521121
aF302.48208709577398
aa(lp274
aF20.0
aa(lp275
g99
a(lp276
F601.87445169622981
aF155.23093879517481
aa(lp277
(lp278
I513
aI188
aa(lp279
I682
aI203
aa(lp280
I689
aI122
aa(lp281
I521
aI106
aaaF14702.083333333334
a(lp282
aa(lp283
g99
a(lp284
F350.40865761897993
aF240.78895358443907
aa(lp285
(lp286
I298
aI295
aa(lp287
I349
aI315
aa(lp288
I402
aI186
aa(lp289
I351
aI165
aaaF9427.0833333333339
a(lp290
aa(lp291
g243
a(F297.0
F300.0
tp292
a(F347.0
F164.0
tp293
aa(lp294
g243
a(F297.0
F299.0
tp295
a(F347.0
F163.0
tp296
aa(lp297
g243
a(F347.0
F164.0
tp298
a(F404.0
F187.0
tp299
aa(lp300
g243
a(F347.0
F163.0
tp301
a(F404.0
F186.0
tp302
aa(lp303
g243
a(F296.0
F302.0
tp304
a(F356.0
F324.0
tp305
aa(lp306
g243
a(F296.0
F301.0
tp307
a(F356.0
F323.0
tp308
aa(lp309
g243
a(F517.0
F107.0
tp310
a(F513.0
F193.0
tp311
aa(lp312
g243
a(F517.0
F106.0
tp313
a(F513.0
F192.0
tp314
aa(lp315
g243
a(F513.0
F193.0
tp316
a(F689.0
F207.0
tp317
aa(lp318
g243
a(F513.0
F192.0
tp319
a(F689.0
F206.0
tp320
aa(lp321
g243
a(F689.0
F207.0
tp322
a(F695.0
F122.0
tp323
aa(lp324
g243
a(F689.0
F206.0
tp325
a(F695.0
F121.0
tp326
aa(lp327
S'Spring'
p328
a(lp329
F531.03209530521121
aF302.48208709577398
aa(lp330
F476.31349008937565
aF317.0314300650607
aaa(lp331
g328
a(lp332
F476.31349008937565
aF317.0314300650607
aa(lp333
F516.10592203897943
aF369.0609321855319
aaa(lp334
g328
a(lp335
F531.03209530521121
aF302.48208709577398
aa(lp336
F516.10592203897943
aF369.0609321855319
aaa(lp337
g328
a(lp338
F514.77728048052791
aF357.92899328239787
aa(lp339
F611.20272300022202
aF163.85314898162247
aaa(lp340
g328
a(lp341
F518.7595669193264
aF361.44652111733637
aa(lp342
F355.52618908220899
aF240.81220363263276
aaa.